Component: Arm Compiler for Embedded 6.18 Tool: armlink [5e4cc100]

==============================================================================

Section Cross References

    hal_entry.o(.text.hal_entry) refers to hal_data.o(.rodata.g_uart7) for g_uart7
    hal_entry.o(.text.hal_entry) refers to hal_data.o(.rodata.g_timer_1ms) for g_timer_1ms
    hal_entry.o(.text.hal_entry) refers to bsp_delay.o(.text.R_BSP_SoftwareDelay) for R_BSP_SoftwareDelay
    hal_entry.o(.text.hal_entry) refers to tjc_usart_hmi.o(.text.UART_HIM_Init) for UART_HIM_Init
    hal_entry.o(.text.hal_entry) refers to as608pro.o(.text.AS608_Init) for AS608_Init
    hal_entry.o(.text.hal_entry) refers to pn532.o(.text.PN532_INIT) for PN532_INIT
    hal_entry.o(.text.hal_entry) refers to k230_connect.o(.text.uart8_init) for uart8_init
    hal_entry.o(.text.hal_entry) refers to esp_connect.o(.text.uart2_init) for uart2_init
    hal_entry.o(.text.hal_entry) refers to asr_pro.o(.text.uart9_init) for uart9_init
    hal_entry.o(.text.hal_entry) refers to motor.o(.text.motor_init) for motor_init
    hal_entry.o(.text.hal_entry) refers to printf8.o(i.__0printf$8) for __2printf
    hal_entry.o(.text.hal_entry) refers to as608pro.o(.text.finger_search) for finger_search
    hal_entry.o(.text.hal_entry) refers to tjc_usart_hmi.o(.text.HIM_connection) for HIM_connection
    hal_entry.o(.text.hal_entry) refers to pn532.o(.text.PN532_connect) for PN532_connect
    hal_entry.o(.text.hal_entry) refers to fun.o(.text.key_scan) for key_scan
    hal_entry.o(.text.hal_entry) refers to k230_connect.o(.text.process_uart8_data) for process_uart8_data
    hal_entry.o(.text.hal_entry) refers to esp_connect.o(.text.process_uart2_data) for process_uart2_data
    hal_entry.o(.text.hal_entry) refers to esp_connect.o(.text.update_clock_display) for update_clock_display
    hal_entry.o(.text.hal_entry) refers to motor.o(.text.motor_task) for motor_task
    hal_entry.o(.ARM.exidx.text.hal_entry) refers to hal_entry.o(.text.hal_entry) for [Anonymous Symbol]
    hal_entry.o(.text.R_BSP_WarmStart) refers to common_data.o(.bss.g_ioport_ctrl) for g_ioport_ctrl
    hal_entry.o(.text.R_BSP_WarmStart) refers to pin_data.o(.rodata.g_bsp_pin_cfg) for g_bsp_pin_cfg
    hal_entry.o(.text.R_BSP_WarmStart) refers to r_ioport.o(.text.R_IOPORT_Open) for R_IOPORT_Open
    hal_entry.o(.ARM.exidx.text.R_BSP_WarmStart) refers to hal_entry.o(.text.R_BSP_WarmStart) for [Anonymous Symbol]
    as608pro.o(.text.finger_addtion) refers to puts.o(i.puts) for puts
    as608pro.o(.text.finger_addtion) refers to bsp_delay.o(.text.R_BSP_SoftwareDelay) for R_BSP_SoftwareDelay
    as608pro.o(.text.finger_addtion) refers to as608pro.o(.rodata.str1.1) for .Lstr
    as608pro.o(.text.finger_addtion) refers to as608pro.o(.bss.str1) for str1
    as608pro.o(.text.finger_addtion) refers to tjc_usart_hmi.o(.text.tjc_send_string) for tjc_send_string
    as608pro.o(.text.finger_addtion) refers to as608pro.o(.text.AS608_AddFR) for AS608_AddFR
    as608pro.o(.ARM.exidx.text.finger_addtion) refers to as608pro.o(.text.finger_addtion) for [Anonymous Symbol]
    as608pro.o(.text.AS608_AddFR) refers to as608pro.o(.text.PS_GetImage) for PS_GetImage
    as608pro.o(.text.AS608_AddFR) refers to as608pro.o(.text.PS_GenChar) for PS_GenChar
    as608pro.o(.text.AS608_AddFR) refers to as608pro.o(.text.PS_Match) for PS_Match
    as608pro.o(.text.AS608_AddFR) refers to as608pro.o(.text.PS_RegModel) for PS_RegModel
    as608pro.o(.text.AS608_AddFR) refers to as608pro.o(.bss.ValidN) for ValidN
    as608pro.o(.text.AS608_AddFR) refers to as608pro.o(.text.PS_ValidTempleteNum) for PS_ValidTempleteNum
    as608pro.o(.text.AS608_AddFR) refers to as608pro.o(.text.PS_StoreChar) for PS_StoreChar
    as608pro.o(.ARM.exidx.text.AS608_AddFR) refers to as608pro.o(.text.AS608_AddFR) for [Anonymous Symbol]
    as608pro.o(.text.finger_search) refers to as608pro.o(.text.AS608_PressFR) for AS608_PressFR
    as608pro.o(.text.finger_search) refers to printf8.o(i.__0printf$8) for __2printf
    as608pro.o(.text.finger_search) refers to as608pro.o(.bss.str1) for str1
    as608pro.o(.text.finger_search) refers to tjc_usart_hmi.o(.text.tjc_send_string) for tjc_send_string
    as608pro.o(.text.finger_search) refers to esp_connect.o(.text.uart2_send_value) for uart2_send_value
    as608pro.o(.text.finger_search) refers to asr_pro.o(.text.uart9_send_value) for uart9_send_value
    as608pro.o(.text.finger_search) refers to puts.o(i.puts) for puts
    as608pro.o(.text.finger_search) refers to bsp_delay.o(.text.R_BSP_SoftwareDelay) for R_BSP_SoftwareDelay
    as608pro.o(.text.finger_search) refers to motor.o(.bss.motor_flag) for motor_flag
    as608pro.o(.text.finger_search) refers to esp_connect.o(.text.dakai_clock_display) for dakai_clock_display
    as608pro.o(.ARM.exidx.text.finger_search) refers to as608pro.o(.text.finger_search) for [Anonymous Symbol]
    as608pro.o(.text.AS608_PressFR) refers to as608pro.o(.bss.AS608_PressFR.press_state) for AS608_PressFR.press_state
    as608pro.o(.text.AS608_PressFR) refers to as608pro.o(.text.PS_GetImage) for PS_GetImage
    as608pro.o(.text.AS608_PressFR) refers to as608pro.o(.text.PS_GenChar) for PS_GenChar
    as608pro.o(.text.AS608_PressFR) refers to as608pro.o(.bss.AS608Para) for AS608Para
    as608pro.o(.text.AS608_PressFR) refers to as608pro.o(.text.PS_HighSpeedSearch) for PS_HighSpeedSearch
    as608pro.o(.ARM.exidx.text.AS608_PressFR) refers to as608pro.o(.text.AS608_PressFR) for [Anonymous Symbol]
    as608pro.o(.text.uart3_callback) refers to as608pro.o(.bss.level) for level
    as608pro.o(.text.uart3_callback) refers to as608pro.o(.bss.g_uart3_tx_complete) for g_uart3_tx_complete
    as608pro.o(.text.uart3_callback) refers to as608pro.o(.bss.g_uart3_rx_complete) for g_uart3_rx_complete
    as608pro.o(.text.uart3_callback) refers to as608pro.o(.bss.AS608_USART_RX_STA) for AS608_USART_RX_STA
    as608pro.o(.text.uart3_callback) refers to as608pro.o(.bss.rx_timeout_counter) for rx_timeout_counter
    as608pro.o(.text.uart3_callback) refers to as608pro.o(.bss.AS608_USART_RX_BUF) for AS608_USART_RX_BUF
    as608pro.o(.ARM.exidx.text.uart3_callback) refers to as608pro.o(.text.uart3_callback) for [Anonymous Symbol]
    as608pro.o(.text.timeout_search_1ms) refers to as608pro.o(.bss.rx_timeout_counter) for rx_timeout_counter
    as608pro.o(.text.timeout_search_1ms) refers to as608pro.o(.bss.AS608_USART_RX_STA) for AS608_USART_RX_STA
    as608pro.o(.ARM.exidx.text.timeout_search_1ms) refers to as608pro.o(.text.timeout_search_1ms) for [Anonymous Symbol]
    as608pro.o(.text.AS608_Init) refers to hal_data.o(.rodata.g_uart3) for g_uart3
    as608pro.o(.text.AS608_Init) refers to bsp_delay.o(.text.R_BSP_SoftwareDelay) for R_BSP_SoftwareDelay
    as608pro.o(.text.AS608_Init) refers to as608pro.o(.text.AS608_Check) for AS608_Check
    as608pro.o(.ARM.exidx.text.AS608_Init) refers to as608pro.o(.text.AS608_Init) for [Anonymous Symbol]
    as608pro.o(.text.AS608_Check) refers to as608pro.o(.data.AS608Addr) for AS608Addr
    as608pro.o(.text.AS608_Check) refers to as608pro.o(.text.PS_HandShake) for PS_HandShake
    as608pro.o(.text.AS608_Check) refers to printf8.o(i.__0printf$8) for __2printf
    as608pro.o(.text.AS608_Check) refers to bsp_delay.o(.text.R_BSP_SoftwareDelay) for R_BSP_SoftwareDelay
    as608pro.o(.text.AS608_Check) refers to as608pro.o(.bss.ValidN) for ValidN
    as608pro.o(.text.AS608_Check) refers to as608pro.o(.text.PS_ValidTempleteNum) for PS_ValidTempleteNum
    as608pro.o(.text.AS608_Check) refers to as608pro.o(.rodata.str1.1) for .L.str.16
    as608pro.o(.text.AS608_Check) refers to puts.o(i.puts) for puts
    as608pro.o(.text.AS608_Check) refers to as608pro.o(.bss.AS608Para) for AS608Para
    as608pro.o(.text.AS608_Check) refers to as608pro.o(.text.PS_ReadSysPara) for PS_ReadSysPara
    as608pro.o(.ARM.exidx.text.AS608_Check) refers to as608pro.o(.text.AS608_Check) for [Anonymous Symbol]
    as608pro.o(.text.SendHead) refers to as608pro.o(.bss.g_uart3_tx_complete) for g_uart3_tx_complete
    as608pro.o(.text.SendHead) refers to hal_data.o(.rodata.g_uart3) for g_uart3
    as608pro.o(.ARM.exidx.text.SendHead) refers to as608pro.o(.text.SendHead) for [Anonymous Symbol]
    as608pro.o(.text.PS_GetImage) refers to as608pro.o(.text.SendHead) for SendHead
    as608pro.o(.text.PS_GetImage) refers to as608pro.o(.text.SendAddr) for SendAddr
    as608pro.o(.text.PS_GetImage) refers to as608pro.o(.bss.g_uart3_tx_complete) for g_uart3_tx_complete
    as608pro.o(.text.PS_GetImage) refers to hal_data.o(.rodata.g_uart3) for g_uart3
    as608pro.o(.text.PS_GetImage) refers to as608pro.o(.text.SendLength) for SendLength
    as608pro.o(.text.PS_GetImage) refers to as608pro.o(.text.SendCheck) for SendCheck
    as608pro.o(.text.PS_GetImage) refers to as608pro.o(.text.JudgeStr) for JudgeStr
    as608pro.o(.ARM.exidx.text.PS_GetImage) refers to as608pro.o(.text.PS_GetImage) for [Anonymous Symbol]
    as608pro.o(.text.SendAddr) refers to as608pro.o(.data.AS608Addr) for AS608Addr
    as608pro.o(.text.SendAddr) refers to as608pro.o(.bss.g_uart3_tx_complete) for g_uart3_tx_complete
    as608pro.o(.text.SendAddr) refers to hal_data.o(.rodata.g_uart3) for g_uart3
    as608pro.o(.ARM.exidx.text.SendAddr) refers to as608pro.o(.text.SendAddr) for [Anonymous Symbol]
    as608pro.o(.text.SendLength) refers to as608pro.o(.bss.g_uart3_tx_complete) for g_uart3_tx_complete
    as608pro.o(.text.SendLength) refers to hal_data.o(.rodata.g_uart3) for g_uart3
    as608pro.o(.ARM.exidx.text.SendLength) refers to as608pro.o(.text.SendLength) for [Anonymous Symbol]
    as608pro.o(.text.SendCheck) refers to as608pro.o(.bss.g_uart3_tx_complete) for g_uart3_tx_complete
    as608pro.o(.text.SendCheck) refers to hal_data.o(.rodata.g_uart3) for g_uart3
    as608pro.o(.ARM.exidx.text.SendCheck) refers to as608pro.o(.text.SendCheck) for [Anonymous Symbol]
    as608pro.o(.text.JudgeStr) refers to as608pro.o(.data.AS608Addr) for AS608Addr
    as608pro.o(.text.JudgeStr) refers to as608pro.o(.bss.AS608_USART_RX_STA) for AS608_USART_RX_STA
    as608pro.o(.text.JudgeStr) refers to as608pro.o(.bss.AS608_USART_RX_BUF) for AS608_USART_RX_BUF
    as608pro.o(.text.JudgeStr) refers to bsp_delay.o(.text.R_BSP_SoftwareDelay) for R_BSP_SoftwareDelay
    as608pro.o(.text.JudgeStr) refers to strstr.o(.text) for strstr
    as608pro.o(.ARM.exidx.text.JudgeStr) refers to as608pro.o(.text.JudgeStr) for [Anonymous Symbol]
    as608pro.o(.text.PS_GenChar) refers to as608pro.o(.text.SendHead) for SendHead
    as608pro.o(.text.PS_GenChar) refers to as608pro.o(.text.SendAddr) for SendAddr
    as608pro.o(.text.PS_GenChar) refers to as608pro.o(.bss.g_uart3_tx_complete) for g_uart3_tx_complete
    as608pro.o(.text.PS_GenChar) refers to hal_data.o(.rodata.g_uart3) for g_uart3
    as608pro.o(.text.PS_GenChar) refers to as608pro.o(.text.SendLength) for SendLength
    as608pro.o(.text.PS_GenChar) refers to as608pro.o(.text.SendCheck) for SendCheck
    as608pro.o(.text.PS_GenChar) refers to as608pro.o(.text.JudgeStr) for JudgeStr
    as608pro.o(.ARM.exidx.text.PS_GenChar) refers to as608pro.o(.text.PS_GenChar) for [Anonymous Symbol]
    as608pro.o(.text.PS_Match) refers to as608pro.o(.text.SendHead) for SendHead
    as608pro.o(.text.PS_Match) refers to as608pro.o(.text.SendAddr) for SendAddr
    as608pro.o(.text.PS_Match) refers to as608pro.o(.bss.g_uart3_tx_complete) for g_uart3_tx_complete
    as608pro.o(.text.PS_Match) refers to hal_data.o(.rodata.g_uart3) for g_uart3
    as608pro.o(.text.PS_Match) refers to as608pro.o(.text.SendLength) for SendLength
    as608pro.o(.text.PS_Match) refers to as608pro.o(.text.SendCheck) for SendCheck
    as608pro.o(.text.PS_Match) refers to as608pro.o(.text.JudgeStr) for JudgeStr
    as608pro.o(.ARM.exidx.text.PS_Match) refers to as608pro.o(.text.PS_Match) for [Anonymous Symbol]
    as608pro.o(.text.PS_Search) refers to as608pro.o(.text.SendHead) for SendHead
    as608pro.o(.text.PS_Search) refers to as608pro.o(.text.SendAddr) for SendAddr
    as608pro.o(.text.PS_Search) refers to as608pro.o(.bss.g_uart3_tx_complete) for g_uart3_tx_complete
    as608pro.o(.text.PS_Search) refers to hal_data.o(.rodata.g_uart3) for g_uart3
    as608pro.o(.text.PS_Search) refers to as608pro.o(.text.SendLength) for SendLength
    as608pro.o(.text.PS_Search) refers to as608pro.o(.text.SendCheck) for SendCheck
    as608pro.o(.text.PS_Search) refers to as608pro.o(.text.JudgeStr) for JudgeStr
    as608pro.o(.ARM.exidx.text.PS_Search) refers to as608pro.o(.text.PS_Search) for [Anonymous Symbol]
    as608pro.o(.text.PS_RegModel) refers to as608pro.o(.text.SendHead) for SendHead
    as608pro.o(.text.PS_RegModel) refers to as608pro.o(.text.SendAddr) for SendAddr
    as608pro.o(.text.PS_RegModel) refers to as608pro.o(.bss.g_uart3_tx_complete) for g_uart3_tx_complete
    as608pro.o(.text.PS_RegModel) refers to hal_data.o(.rodata.g_uart3) for g_uart3
    as608pro.o(.text.PS_RegModel) refers to as608pro.o(.text.SendLength) for SendLength
    as608pro.o(.text.PS_RegModel) refers to as608pro.o(.text.SendCheck) for SendCheck
    as608pro.o(.text.PS_RegModel) refers to as608pro.o(.text.JudgeStr) for JudgeStr
    as608pro.o(.ARM.exidx.text.PS_RegModel) refers to as608pro.o(.text.PS_RegModel) for [Anonymous Symbol]
    as608pro.o(.text.PS_StoreChar) refers to as608pro.o(.text.SendHead) for SendHead
    as608pro.o(.text.PS_StoreChar) refers to as608pro.o(.text.SendAddr) for SendAddr
    as608pro.o(.text.PS_StoreChar) refers to as608pro.o(.bss.g_uart3_tx_complete) for g_uart3_tx_complete
    as608pro.o(.text.PS_StoreChar) refers to hal_data.o(.rodata.g_uart3) for g_uart3
    as608pro.o(.text.PS_StoreChar) refers to as608pro.o(.text.SendLength) for SendLength
    as608pro.o(.text.PS_StoreChar) refers to as608pro.o(.text.SendCheck) for SendCheck
    as608pro.o(.text.PS_StoreChar) refers to as608pro.o(.text.JudgeStr) for JudgeStr
    as608pro.o(.ARM.exidx.text.PS_StoreChar) refers to as608pro.o(.text.PS_StoreChar) for [Anonymous Symbol]
    as608pro.o(.text.PS_DeletChar) refers to as608pro.o(.text.SendHead) for SendHead
    as608pro.o(.text.PS_DeletChar) refers to as608pro.o(.text.SendAddr) for SendAddr
    as608pro.o(.text.PS_DeletChar) refers to as608pro.o(.bss.g_uart3_tx_complete) for g_uart3_tx_complete
    as608pro.o(.text.PS_DeletChar) refers to hal_data.o(.rodata.g_uart3) for g_uart3
    as608pro.o(.text.PS_DeletChar) refers to as608pro.o(.text.SendLength) for SendLength
    as608pro.o(.text.PS_DeletChar) refers to as608pro.o(.text.SendCheck) for SendCheck
    as608pro.o(.text.PS_DeletChar) refers to as608pro.o(.text.JudgeStr) for JudgeStr
    as608pro.o(.ARM.exidx.text.PS_DeletChar) refers to as608pro.o(.text.PS_DeletChar) for [Anonymous Symbol]
    as608pro.o(.text.PS_Empty) refers to as608pro.o(.text.SendHead) for SendHead
    as608pro.o(.text.PS_Empty) refers to as608pro.o(.text.SendAddr) for SendAddr
    as608pro.o(.text.PS_Empty) refers to as608pro.o(.bss.g_uart3_tx_complete) for g_uart3_tx_complete
    as608pro.o(.text.PS_Empty) refers to hal_data.o(.rodata.g_uart3) for g_uart3
    as608pro.o(.text.PS_Empty) refers to as608pro.o(.text.SendLength) for SendLength
    as608pro.o(.text.PS_Empty) refers to as608pro.o(.text.SendCheck) for SendCheck
    as608pro.o(.text.PS_Empty) refers to as608pro.o(.text.JudgeStr) for JudgeStr
    as608pro.o(.ARM.exidx.text.PS_Empty) refers to as608pro.o(.text.PS_Empty) for [Anonymous Symbol]
    as608pro.o(.text.PS_WriteReg) refers to as608pro.o(.text.SendHead) for SendHead
    as608pro.o(.text.PS_WriteReg) refers to as608pro.o(.text.SendAddr) for SendAddr
    as608pro.o(.text.PS_WriteReg) refers to as608pro.o(.bss.g_uart3_tx_complete) for g_uart3_tx_complete
    as608pro.o(.text.PS_WriteReg) refers to hal_data.o(.rodata.g_uart3) for g_uart3
    as608pro.o(.text.PS_WriteReg) refers to as608pro.o(.text.SendLength) for SendLength
    as608pro.o(.text.PS_WriteReg) refers to as608pro.o(.text.SendCheck) for SendCheck
    as608pro.o(.text.PS_WriteReg) refers to as608pro.o(.text.JudgeStr) for JudgeStr
    as608pro.o(.ARM.exidx.text.PS_WriteReg) refers to as608pro.o(.text.PS_WriteReg) for [Anonymous Symbol]
    as608pro.o(.text.PS_ReadSysPara) refers to as608pro.o(.text.SendHead) for SendHead
    as608pro.o(.text.PS_ReadSysPara) refers to as608pro.o(.text.SendAddr) for SendAddr
    as608pro.o(.text.PS_ReadSysPara) refers to as608pro.o(.bss.g_uart3_tx_complete) for g_uart3_tx_complete
    as608pro.o(.text.PS_ReadSysPara) refers to hal_data.o(.rodata.g_uart3) for g_uart3
    as608pro.o(.text.PS_ReadSysPara) refers to as608pro.o(.text.SendLength) for SendLength
    as608pro.o(.text.PS_ReadSysPara) refers to as608pro.o(.text.SendCheck) for SendCheck
    as608pro.o(.text.PS_ReadSysPara) refers to as608pro.o(.text.JudgeStr) for JudgeStr
    as608pro.o(.ARM.exidx.text.PS_ReadSysPara) refers to as608pro.o(.text.PS_ReadSysPara) for [Anonymous Symbol]
    as608pro.o(.text.PS_SetAddr) refers to as608pro.o(.text.SendHead) for SendHead
    as608pro.o(.text.PS_SetAddr) refers to as608pro.o(.text.SendAddr) for SendAddr
    as608pro.o(.text.PS_SetAddr) refers to as608pro.o(.bss.g_uart3_tx_complete) for g_uart3_tx_complete
    as608pro.o(.text.PS_SetAddr) refers to hal_data.o(.rodata.g_uart3) for g_uart3
    as608pro.o(.text.PS_SetAddr) refers to as608pro.o(.text.SendLength) for SendLength
    as608pro.o(.text.PS_SetAddr) refers to as608pro.o(.text.SendCheck) for SendCheck
    as608pro.o(.text.PS_SetAddr) refers to as608pro.o(.data.AS608Addr) for AS608Addr
    as608pro.o(.text.PS_SetAddr) refers to as608pro.o(.text.JudgeStr) for JudgeStr
    as608pro.o(.ARM.exidx.text.PS_SetAddr) refers to as608pro.o(.text.PS_SetAddr) for [Anonymous Symbol]
    as608pro.o(.text.PS_WriteNotepad) refers to as608pro.o(.text.SendHead) for SendHead
    as608pro.o(.text.PS_WriteNotepad) refers to as608pro.o(.text.SendAddr) for SendAddr
    as608pro.o(.text.PS_WriteNotepad) refers to as608pro.o(.bss.g_uart3_tx_complete) for g_uart3_tx_complete
    as608pro.o(.text.PS_WriteNotepad) refers to hal_data.o(.rodata.g_uart3) for g_uart3
    as608pro.o(.text.PS_WriteNotepad) refers to as608pro.o(.text.SendLength) for SendLength
    as608pro.o(.text.PS_WriteNotepad) refers to as608pro.o(.text.SendCheck) for SendCheck
    as608pro.o(.text.PS_WriteNotepad) refers to as608pro.o(.text.JudgeStr) for JudgeStr
    as608pro.o(.ARM.exidx.text.PS_WriteNotepad) refers to as608pro.o(.text.PS_WriteNotepad) for [Anonymous Symbol]
    as608pro.o(.text.PS_ReadNotepad) refers to as608pro.o(.text.SendHead) for SendHead
    as608pro.o(.text.PS_ReadNotepad) refers to as608pro.o(.text.SendAddr) for SendAddr
    as608pro.o(.text.PS_ReadNotepad) refers to as608pro.o(.bss.g_uart3_tx_complete) for g_uart3_tx_complete
    as608pro.o(.text.PS_ReadNotepad) refers to hal_data.o(.rodata.g_uart3) for g_uart3
    as608pro.o(.text.PS_ReadNotepad) refers to as608pro.o(.text.SendLength) for SendLength
    as608pro.o(.text.PS_ReadNotepad) refers to as608pro.o(.text.SendCheck) for SendCheck
    as608pro.o(.text.PS_ReadNotepad) refers to as608pro.o(.text.JudgeStr) for JudgeStr
    as608pro.o(.ARM.exidx.text.PS_ReadNotepad) refers to as608pro.o(.text.PS_ReadNotepad) for [Anonymous Symbol]
    as608pro.o(.text.PS_HighSpeedSearch) refers to as608pro.o(.text.SendHead) for SendHead
    as608pro.o(.text.PS_HighSpeedSearch) refers to as608pro.o(.text.SendAddr) for SendAddr
    as608pro.o(.text.PS_HighSpeedSearch) refers to as608pro.o(.bss.g_uart3_tx_complete) for g_uart3_tx_complete
    as608pro.o(.text.PS_HighSpeedSearch) refers to hal_data.o(.rodata.g_uart3) for g_uart3
    as608pro.o(.text.PS_HighSpeedSearch) refers to as608pro.o(.text.SendLength) for SendLength
    as608pro.o(.text.PS_HighSpeedSearch) refers to as608pro.o(.text.SendCheck) for SendCheck
    as608pro.o(.text.PS_HighSpeedSearch) refers to as608pro.o(.text.JudgeStr) for JudgeStr
    as608pro.o(.ARM.exidx.text.PS_HighSpeedSearch) refers to as608pro.o(.text.PS_HighSpeedSearch) for [Anonymous Symbol]
    as608pro.o(.text.PS_ValidTempleteNum) refers to as608pro.o(.text.SendHead) for SendHead
    as608pro.o(.text.PS_ValidTempleteNum) refers to as608pro.o(.text.SendAddr) for SendAddr
    as608pro.o(.text.PS_ValidTempleteNum) refers to as608pro.o(.bss.g_uart3_tx_complete) for g_uart3_tx_complete
    as608pro.o(.text.PS_ValidTempleteNum) refers to hal_data.o(.rodata.g_uart3) for g_uart3
    as608pro.o(.text.PS_ValidTempleteNum) refers to as608pro.o(.text.SendLength) for SendLength
    as608pro.o(.text.PS_ValidTempleteNum) refers to as608pro.o(.text.SendCheck) for SendCheck
    as608pro.o(.text.PS_ValidTempleteNum) refers to as608pro.o(.text.JudgeStr) for JudgeStr
    as608pro.o(.ARM.exidx.text.PS_ValidTempleteNum) refers to as608pro.o(.text.PS_ValidTempleteNum) for [Anonymous Symbol]
    as608pro.o(.text.PS_HandShake) refers to as608pro.o(.text.SendHead) for SendHead
    as608pro.o(.text.PS_HandShake) refers to as608pro.o(.text.SendAddr) for SendAddr
    as608pro.o(.text.PS_HandShake) refers to as608pro.o(.bss.g_uart3_tx_complete) for g_uart3_tx_complete
    as608pro.o(.text.PS_HandShake) refers to hal_data.o(.rodata.g_uart3) for g_uart3
    as608pro.o(.text.PS_HandShake) refers to bsp_delay.o(.text.R_BSP_SoftwareDelay) for R_BSP_SoftwareDelay
    as608pro.o(.text.PS_HandShake) refers to as608pro.o(.bss.AS608_USART_RX_STA) for AS608_USART_RX_STA
    as608pro.o(.text.PS_HandShake) refers to as608pro.o(.bss.AS608_USART_RX_BUF) for AS608_USART_RX_BUF
    as608pro.o(.ARM.exidx.text.PS_HandShake) refers to as608pro.o(.text.PS_HandShake) for [Anonymous Symbol]
    as608pro.o(.text.AS608_DeleteFR) refers to as608pro.o(.text.PS_DeletChar) for PS_DeletChar
    as608pro.o(.text.AS608_DeleteFR) refers to as608pro.o(.text.PS_Empty) for PS_Empty
    as608pro.o(.ARM.exidx.text.AS608_DeleteFR) refers to as608pro.o(.text.AS608_DeleteFR) for [Anonymous Symbol]
    as608pro.o(.text.AS608_GetFRNumber) refers to as608pro.o(.bss.ValidN) for ValidN
    as608pro.o(.text.AS608_GetFRNumber) refers to as608pro.o(.text.PS_ValidTempleteNum) for PS_ValidTempleteNum
    as608pro.o(.ARM.exidx.text.AS608_GetFRNumber) refers to as608pro.o(.text.AS608_GetFRNumber) for [Anonymous Symbol]
    fun.o(.text.print_msg) refers to hal_data.o(.rodata.g_uart7) for g_uart7
    fun.o(.text.print_msg) refers to strlen.o(.text) for strlen
    fun.o(.ARM.exidx.text.print_msg) refers to fun.o(.text.print_msg) for [Anonymous Symbol]
    fun.o(.text.timer_1ms_callback) refers to as608pro.o(.text.timeout_search_1ms) for timeout_search_1ms
    fun.o(.text.timer_1ms_callback) refers to pn532_hal.o(.text.g_system_tick) for g_system_tick
    fun.o(.text.timer_1ms_callback) refers to esp_connect.o(.text.timer_callback) for timer_callback
    fun.o(.text.timer_1ms_callback) refers to tjc_usart_hmi.o(.bss.lock_flag) for lock_flag
    fun.o(.text.timer_1ms_callback) refers to tjc_usart_hmi.o(.bss.a) for a
    fun.o(.text.timer_1ms_callback) refers to common_data.o(.rodata.g_ioport) for g_ioport
    fun.o(.text.timer_1ms_callback) refers to r_ioport.o(.text.R_IOPORT_PinWrite) for R_IOPORT_PinWrite
    fun.o(.text.timer_1ms_callback) refers to motor.o(.bss.motor_flag) for motor_flag
    fun.o(.text.timer_1ms_callback) refers to fun.o(.bss.count) for count
    fun.o(.ARM.exidx.text.timer_1ms_callback) refers to fun.o(.text.timer_1ms_callback) for [Anonymous Symbol]
    fun.o(.text.uart7_callback) refers to fun.o(.bss.g_uart7_tx_complete) for g_uart7_tx_complete
    fun.o(.text.uart7_callback) refers to fun.o(.bss.g_uart7_rx_complete) for g_uart7_rx_complete
    fun.o(.text.uart7_callback) refers to fun.o(.bss.g_rx_buf) for g_rx_buf
    fun.o(.ARM.exidx.text.uart7_callback) refers to fun.o(.text.uart7_callback) for [Anonymous Symbol]
    fun.o(.text.uart7_wait_for_tx) refers to fun.o(.bss.g_uart7_tx_complete) for g_uart7_tx_complete
    fun.o(.ARM.exidx.text.uart7_wait_for_tx) refers to fun.o(.text.uart7_wait_for_tx) for [Anonymous Symbol]
    fun.o(.text.uart7_wait_for_rx) refers to fun.o(.bss.g_uart7_rx_complete) for g_uart7_rx_complete
    fun.o(.ARM.exidx.text.uart7_wait_for_rx) refers to fun.o(.text.uart7_wait_for_rx) for [Anonymous Symbol]
    fun.o(.text.key_scan) refers to common_data.o(.rodata.g_ioport) for g_ioport
    fun.o(.text.key_scan) refers to fun.o(.data.level_2) for level_2
    fun.o(.text.key_scan) refers to common_data.o(.bss.g_ioport_ctrl) for g_ioport_ctrl
    fun.o(.text.key_scan) refers to fun.o(.data.key_scan.stable_level) for key_scan.stable_level
    fun.o(.text.key_scan) refers to fun.o(.bss.key_scan.debounce_cnt) for key_scan.debounce_cnt
    fun.o(.text.key_scan) refers to fun.o(.bss.key_state) for key_state
    fun.o(.text.key_scan) refers to fun.o(.bss.key_press_time) for key_press_time
    fun.o(.text.key_scan) refers to puts.o(i.puts) for puts
    fun.o(.ARM.exidx.text.key_scan) refers to fun.o(.text.key_scan) for [Anonymous Symbol]
    fun.o(.text.circlebuf_init) refers to fun.o(.bss.g_rx_buf) for g_rx_buf
    fun.o(.text.circlebuf_init) refers to fun.o(.bss.rx_buf) for rx_buf
    fun.o(.text.circlebuf_init) refers to fun.o(.text.circlebuf_put) for circlebuf_put
    fun.o(.text.circlebuf_init) refers to fun.o(.text.circlebuf_get) for circlebuf_get
    fun.o(.ARM.exidx.text.circlebuf_init) refers to fun.o(.text.circlebuf_init) for [Anonymous Symbol]
    fun.o(.ARM.exidx.text.circlebuf_get) refers to fun.o(.text.circlebuf_get) for [Anonymous Symbol]
    fun.o(.ARM.exidx.text.circlebuf_put) refers to fun.o(.text.circlebuf_put) for [Anonymous Symbol]
    fun.o(.text.fputc) refers to hal_data.o(.rodata.g_uart7) for g_uart7
    fun.o(.text.fputc) refers to fun.o(.bss.g_uart7_tx_complete) for g_uart7_tx_complete
    fun.o(.ARM.exidx.text.fputc) refers to fun.o(.text.fputc) for [Anonymous Symbol]
    fun.o(.text.fgetc) refers to fun.o(.bss.g_rx_buf) for g_rx_buf
    fun.o(.text.fgetc) refers to hal_data.o(.rodata.g_uart7) for g_uart7
    fun.o(.text.fgetc) refers to fun.o(.bss.g_uart7_tx_complete) for g_uart7_tx_complete
    fun.o(.ARM.exidx.text.fgetc) refers to fun.o(.text.fgetc) for [Anonymous Symbol]
    pn532.o(.text.get_PN532_recv_buf) refers to pn532.o(.bss.PN532_recv_buf) for PN532_recv_buf
    pn532.o(.ARM.exidx.text.get_PN532_recv_buf) refers to pn532.o(.text.get_PN532_recv_buf) for [Anonymous Symbol]
    pn532.o(.text.PN532_INIT) refers to pn532_hal.o(.text.PN532_Init_Hardware) for PN532_Init_Hardware
    pn532.o(.text.PN532_INIT) refers to pn532.o(.bss.version) for version
    pn532.o(.text.PN532_INIT) refers to pn532.o(.text.PN532_GetFirmVersion) for PN532_GetFirmVersion
    pn532.o(.text.PN532_INIT) refers to pn532.o(.bss.result) for result
    pn532.o(.text.PN532_INIT) refers to pn532.o(.text.PN532_SetSamConfig) for PN532_SetSamConfig
    pn532.o(.text.PN532_INIT) refers to bsp_delay.o(.text.R_BSP_SoftwareDelay) for R_BSP_SoftwareDelay
    pn532.o(.text.PN532_INIT) refers to puts.o(i.puts) for puts
    pn532.o(.ARM.exidx.text.PN532_INIT) refers to pn532.o(.text.PN532_INIT) for [Anonymous Symbol]
    pn532.o(.text.PN532_GetFirmVersion) refers to pn532.o(.bss.PN532_send_buf) for PN532_send_buf
    pn532.o(.text.PN532_GetFirmVersion) refers to pn532.o(.text.PN532_send_data) for PN532_send_data
    pn532.o(.text.PN532_GetFirmVersion) refers to pn532.o(.text.PN532_recv_ack) for PN532_recv_ack
    pn532.o(.text.PN532_GetFirmVersion) refers to pn532.o(.bss.PN532_recv_buf) for PN532_recv_buf
    pn532.o(.text.PN532_GetFirmVersion) refers to pn532.o(.text.PN532_recv_data) for PN532_recv_data
    pn532.o(.ARM.exidx.text.PN532_GetFirmVersion) refers to pn532.o(.text.PN532_GetFirmVersion) for [Anonymous Symbol]
    pn532.o(.text.PN532_SetSamConfig) refers to pn532.o(.bss.PN532_send_buf) for PN532_send_buf
    pn532.o(.text.PN532_SetSamConfig) refers to pn532.o(.text.PN532_send_data) for PN532_send_data
    pn532.o(.text.PN532_SetSamConfig) refers to pn532.o(.text.PN532_recv_ack) for PN532_recv_ack
    pn532.o(.text.PN532_SetSamConfig) refers to pn532.o(.bss.PN532_recv_buf) for PN532_recv_buf
    pn532.o(.text.PN532_SetSamConfig) refers to pn532.o(.text.PN532_recv_data) for PN532_recv_data
    pn532.o(.ARM.exidx.text.PN532_SetSamConfig) refers to pn532.o(.text.PN532_SetSamConfig) for [Anonymous Symbol]
    pn532.o(.text.PN532_connect) refers to pn532.o(.bss.uid) for uid
    pn532.o(.text.PN532_connect) refers to pn532.o(.bss.uid_len) for uid_len
    pn532.o(.text.PN532_connect) refers to pn532.o(.text.PN532_ReadPassTarget) for PN532_ReadPassTarget
    pn532.o(.text.PN532_connect) refers to pn532.o(.bss.result) for result
    pn532.o(.text.PN532_connect) refers to printf8.o(i.__0printf$8) for __2printf
    pn532.o(.text.PN532_connect) refers to puts.o(i.puts) for puts
    pn532.o(.text.PN532_connect) refers to pn532.o(.data.num_cards) for num_cards
    pn532.o(.text.PN532_connect) refers to pn532.o(.data.authorized_cards) for authorized_cards
    pn532.o(.text.PN532_connect) refers to memcmp.o(.text) for memcmp
    pn532.o(.text.PN532_connect) refers to pn532.o(.bss.str2) for str2
    pn532.o(.text.PN532_connect) refers to tjc_usart_hmi.o(.text.tjc_send_string) for tjc_send_string
    pn532.o(.text.PN532_connect) refers to esp_connect.o(.text.uart2_send_value) for uart2_send_value
    pn532.o(.text.PN532_connect) refers to asr_pro.o(.text.uart9_send_value) for uart9_send_value
    pn532.o(.text.PN532_connect) refers to bsp_delay.o(.text.R_BSP_SoftwareDelay) for R_BSP_SoftwareDelay
    pn532.o(.text.PN532_connect) refers to as608pro.o(.text.AS608_GetFRNumber) for AS608_GetFRNumber
    pn532.o(.text.PN532_connect) refers to printf8.o(i.__0sprintf$8) for __2sprintf
    pn532.o(.text.PN532_connect) refers to esp_connect.o(.text.dakai_clock_display) for dakai_clock_display
    pn532.o(.text.PN532_connect) refers to motor.o(.bss.motor_flag) for motor_flag
    pn532.o(.ARM.exidx.text.PN532_connect) refers to pn532.o(.text.PN532_connect) for [Anonymous Symbol]
    pn532.o(.text.PN532_ReadPassTarget) refers to pn532.o(.bss.PN532_send_buf) for PN532_send_buf
    pn532.o(.text.PN532_ReadPassTarget) refers to pn532.o(.text.PN532_send_data) for PN532_send_data
    pn532.o(.text.PN532_ReadPassTarget) refers to pn532.o(.text.PN532_recv_ack) for PN532_recv_ack
    pn532.o(.text.PN532_ReadPassTarget) refers to pn532.o(.bss.PN532_recv_buf) for PN532_recv_buf
    pn532.o(.text.PN532_ReadPassTarget) refers to pn532.o(.text.PN532_recv_data) for PN532_recv_data
    pn532.o(.text.PN532_ReadPassTarget) refers to memcpya.o(.text) for __aeabi_memcpy
    pn532.o(.ARM.exidx.text.PN532_ReadPassTarget) refers to pn532.o(.text.PN532_ReadPassTarget) for [Anonymous Symbol]
    pn532.o(.text.PN532_send_data) refers to pn532.o(.bss.PN532_send_buf) for PN532_send_buf
    pn532.o(.text.PN532_send_data) refers to memcpya.o(.text) for __aeabi_memcpy
    pn532.o(.text.PN532_send_data) refers to pn532_hal.o(.text.PN532_I2C_Transmit) for PN532_I2C_Transmit
    pn532.o(.ARM.exidx.text.PN532_send_data) refers to pn532.o(.text.PN532_send_data) for [Anonymous Symbol]
    pn532.o(.text.PN532_WaitReady) refers to pn532_hal.o(.text.PN532_GetTick) for PN532_GetTick
    pn532.o(.text.PN532_WaitReady) refers to pn532_hal.o(.text.PN532_I2C_Receive) for PN532_I2C_Receive
    pn532.o(.text.PN532_WaitReady) refers to bsp_delay.o(.text.R_BSP_SoftwareDelay) for R_BSP_SoftwareDelay
    pn532.o(.ARM.exidx.text.PN532_WaitReady) refers to pn532.o(.text.PN532_WaitReady) for [Anonymous Symbol]
    pn532.o(.text.PN532_recv) refers to pn532.o(.text.PN532_WaitReady) for PN532_WaitReady
    pn532.o(.text.PN532_recv) refers to pn532_hal.o(.text.PN532_I2C_Receive) for PN532_I2C_Receive
    pn532.o(.ARM.exidx.text.PN532_recv) refers to pn532.o(.text.PN532_recv) for [Anonymous Symbol]
    pn532.o(.text.PN532_recv_ack) refers to pn532.o(.bss.PN532_recv_buf) for PN532_recv_buf
    pn532.o(.text.PN532_recv_ack) refers to memseta.o(.text) for __aeabi_memclr4
    pn532.o(.text.PN532_recv_ack) refers to pn532.o(.text.PN532_recv) for PN532_recv
    pn532.o(.text.PN532_recv_ack) refers to pn532.o(.rodata.pn532_ack) for pn532_ack
    pn532.o(.text.PN532_recv_ack) refers to memcmp.o(.text) for memcmp
    pn532.o(.ARM.exidx.text.PN532_recv_ack) refers to pn532.o(.text.PN532_recv_ack) for [Anonymous Symbol]
    pn532.o(.ARM.exidx.text.PN532_parse_frame) refers to pn532.o(.text.PN532_parse_frame) for [Anonymous Symbol]
    pn532.o(.text.PN532_recv_data) refers to pn532.o(.text.PN532_recv) for PN532_recv
    pn532.o(.text.PN532_recv_data) refers to pn532.o(.text.PN532_parse_frame) for PN532_parse_frame
    pn532.o(.ARM.exidx.text.PN532_recv_data) refers to pn532.o(.text.PN532_recv_data) for [Anonymous Symbol]
    pn532.o(.text.PN532_SendGetFirmwareVersion) refers to pn532.o(.bss.PN532_send_buf) for PN532_send_buf
    pn532.o(.text.PN532_SendGetFirmwareVersion) refers to pn532.o(.text.PN532_send_data) for PN532_send_data
    pn532.o(.ARM.exidx.text.PN532_SendGetFirmwareVersion) refers to pn532.o(.text.PN532_SendGetFirmwareVersion) for [Anonymous Symbol]
    pn532.o(.text.PN532_SendSamConfig) refers to pn532.o(.bss.PN532_send_buf) for PN532_send_buf
    pn532.o(.text.PN532_SendSamConfig) refers to pn532.o(.text.PN532_send_data) for PN532_send_data
    pn532.o(.ARM.exidx.text.PN532_SendSamConfig) refers to pn532.o(.text.PN532_SendSamConfig) for [Anonymous Symbol]
    pn532.o(.text.PN532_SendReadPassiveTarget) refers to pn532.o(.bss.PN532_send_buf) for PN532_send_buf
    pn532.o(.text.PN532_SendReadPassiveTarget) refers to pn532.o(.text.PN532_send_data) for PN532_send_data
    pn532.o(.ARM.exidx.text.PN532_SendReadPassiveTarget) refers to pn532.o(.text.PN532_SendReadPassiveTarget) for [Anonymous Symbol]
    pn532.o(.text.PN532_SendMifareClassicAuthBlock) refers to pn532.o(.bss.PN532_send_buf) for PN532_send_buf
    pn532.o(.text.PN532_SendMifareClassicAuthBlock) refers to pn532.o(.text.PN532_send_data) for PN532_send_data
    pn532.o(.ARM.exidx.text.PN532_SendMifareClassicAuthBlock) refers to pn532.o(.text.PN532_SendMifareClassicAuthBlock) for [Anonymous Symbol]
    pn532.o(.text.PN532_MifareClassicAuthBlock) refers to pn532.o(.text.PN532_SendMifareClassicAuthBlock) for PN532_SendMifareClassicAuthBlock
    pn532.o(.text.PN532_MifareClassicAuthBlock) refers to pn532.o(.text.PN532_recv_ack) for PN532_recv_ack
    pn532.o(.text.PN532_MifareClassicAuthBlock) refers to pn532.o(.bss.PN532_recv_buf) for PN532_recv_buf
    pn532.o(.text.PN532_MifareClassicAuthBlock) refers to pn532.o(.text.PN532_recv_data) for PN532_recv_data
    pn532.o(.ARM.exidx.text.PN532_MifareClassicAuthBlock) refers to pn532.o(.text.PN532_MifareClassicAuthBlock) for [Anonymous Symbol]
    pn532.o(.text.PN532_SendReadDataBlock) refers to pn532.o(.bss.PN532_send_buf) for PN532_send_buf
    pn532.o(.text.PN532_SendReadDataBlock) refers to pn532.o(.text.PN532_send_data) for PN532_send_data
    pn532.o(.ARM.exidx.text.PN532_SendReadDataBlock) refers to pn532.o(.text.PN532_SendReadDataBlock) for [Anonymous Symbol]
    pn532.o(.text.PN532_ReadDataBlock) refers to pn532.o(.bss.PN532_send_buf) for PN532_send_buf
    pn532.o(.text.PN532_ReadDataBlock) refers to pn532.o(.text.PN532_send_data) for PN532_send_data
    pn532.o(.text.PN532_ReadDataBlock) refers to pn532.o(.text.PN532_recv_ack) for PN532_recv_ack
    pn532.o(.text.PN532_ReadDataBlock) refers to pn532.o(.bss.PN532_recv_buf) for PN532_recv_buf
    pn532.o(.text.PN532_ReadDataBlock) refers to pn532.o(.text.PN532_recv_data) for PN532_recv_data
    pn532.o(.text.PN532_ReadDataBlock) refers to memcpya.o(.text) for __aeabi_memcpy
    pn532.o(.ARM.exidx.text.PN532_ReadDataBlock) refers to pn532.o(.text.PN532_ReadDataBlock) for [Anonymous Symbol]
    pn532.o(.text.PN532_SendWriteDataBlock) refers to pn532.o(.bss.PN532_send_buf) for PN532_send_buf
    pn532.o(.text.PN532_SendWriteDataBlock) refers to memcpya.o(.text) for __aeabi_memcpy
    pn532.o(.text.PN532_SendWriteDataBlock) refers to pn532.o(.text.PN532_send_data) for PN532_send_data
    pn532.o(.ARM.exidx.text.PN532_SendWriteDataBlock) refers to pn532.o(.text.PN532_SendWriteDataBlock) for [Anonymous Symbol]
    pn532.o(.text.PN532_WriteDataBlock) refers to pn532.o(.bss.PN532_send_buf) for PN532_send_buf
    pn532.o(.text.PN532_WriteDataBlock) refers to memcpya.o(.text) for __aeabi_memcpy
    pn532.o(.text.PN532_WriteDataBlock) refers to pn532.o(.text.PN532_send_data) for PN532_send_data
    pn532.o(.text.PN532_WriteDataBlock) refers to pn532.o(.text.PN532_recv_ack) for PN532_recv_ack
    pn532.o(.text.PN532_WriteDataBlock) refers to pn532.o(.bss.PN532_recv_buf) for PN532_recv_buf
    pn532.o(.text.PN532_WriteDataBlock) refers to pn532.o(.text.PN532_recv_data) for PN532_recv_data
    pn532.o(.ARM.exidx.text.PN532_WriteDataBlock) refers to pn532.o(.text.PN532_WriteDataBlock) for [Anonymous Symbol]
    pn532.o(.text.PN532_SendSetParameters) refers to pn532.o(.bss.PN532_send_buf) for PN532_send_buf
    pn532.o(.text.PN532_SendSetParameters) refers to pn532.o(.text.PN532_send_data) for PN532_send_data
    pn532.o(.ARM.exidx.text.PN532_SendSetParameters) refers to pn532.o(.text.PN532_SendSetParameters) for [Anonymous Symbol]
    pn532.o(.text.PN532_SetParameters) refers to pn532.o(.bss.PN532_send_buf) for PN532_send_buf
    pn532.o(.text.PN532_SetParameters) refers to pn532.o(.text.PN532_send_data) for PN532_send_data
    pn532.o(.text.PN532_SetParameters) refers to pn532.o(.text.PN532_recv_ack) for PN532_recv_ack
    pn532.o(.text.PN532_SetParameters) refers to pn532.o(.bss.PN532_recv_buf) for PN532_recv_buf
    pn532.o(.text.PN532_SetParameters) refers to pn532.o(.text.PN532_recv_data) for PN532_recv_data
    pn532.o(.ARM.exidx.text.PN532_SetParameters) refers to pn532.o(.text.PN532_SetParameters) for [Anonymous Symbol]
    pn532.o(.text.PN532_SendNtag2xxAuth) refers to pn532.o(.bss.PN532_send_buf) for PN532_send_buf
    pn532.o(.text.PN532_SendNtag2xxAuth) refers to pn532.o(.text.PN532_send_data) for PN532_send_data
    pn532.o(.ARM.exidx.text.PN532_SendNtag2xxAuth) refers to pn532.o(.text.PN532_SendNtag2xxAuth) for [Anonymous Symbol]
    pn532.o(.text.PN532_Ntag2xxAuth) refers to pn532.o(.bss.PN532_send_buf) for PN532_send_buf
    pn532.o(.text.PN532_Ntag2xxAuth) refers to pn532.o(.text.PN532_send_data) for PN532_send_data
    pn532.o(.text.PN532_Ntag2xxAuth) refers to pn532.o(.text.PN532_recv_ack) for PN532_recv_ack
    pn532.o(.text.PN532_Ntag2xxAuth) refers to pn532.o(.bss.PN532_recv_buf) for PN532_recv_buf
    pn532.o(.text.PN532_Ntag2xxAuth) refers to pn532.o(.text.PN532_recv_data) for PN532_recv_data
    pn532.o(.ARM.exidx.text.PN532_Ntag2xxAuth) refers to pn532.o(.text.PN532_Ntag2xxAuth) for [Anonymous Symbol]
    pn532.o(.text.PN532_SendNtag2xxReadBlock) refers to pn532.o(.bss.PN532_send_buf) for PN532_send_buf
    pn532.o(.text.PN532_SendNtag2xxReadBlock) refers to pn532.o(.text.PN532_send_data) for PN532_send_data
    pn532.o(.ARM.exidx.text.PN532_SendNtag2xxReadBlock) refers to pn532.o(.text.PN532_SendNtag2xxReadBlock) for [Anonymous Symbol]
    pn532.o(.text.PN532_Ntag2xxReadBlock) refers to pn532.o(.bss.PN532_send_buf) for PN532_send_buf
    pn532.o(.text.PN532_Ntag2xxReadBlock) refers to pn532.o(.text.PN532_send_data) for PN532_send_data
    pn532.o(.text.PN532_Ntag2xxReadBlock) refers to pn532.o(.text.PN532_recv_ack) for PN532_recv_ack
    pn532.o(.text.PN532_Ntag2xxReadBlock) refers to pn532.o(.bss.PN532_recv_buf) for PN532_recv_buf
    pn532.o(.text.PN532_Ntag2xxReadBlock) refers to pn532.o(.text.PN532_recv_data) for PN532_recv_data
    pn532.o(.ARM.exidx.text.PN532_Ntag2xxReadBlock) refers to pn532.o(.text.PN532_Ntag2xxReadBlock) for [Anonymous Symbol]
    pn532.o(.text.PN532_SendNtag2xxWriteBlock) refers to pn532.o(.bss.PN532_send_buf) for PN532_send_buf
    pn532.o(.text.PN532_SendNtag2xxWriteBlock) refers to pn532.o(.text.PN532_send_data) for PN532_send_data
    pn532.o(.ARM.exidx.text.PN532_SendNtag2xxWriteBlock) refers to pn532.o(.text.PN532_SendNtag2xxWriteBlock) for [Anonymous Symbol]
    pn532.o(.text.PN532_Ntag2xxWriteBlock) refers to pn532.o(.text.PN532_SendNtag2xxWriteBlock) for PN532_SendNtag2xxWriteBlock
    pn532.o(.text.PN532_Ntag2xxWriteBlock) refers to pn532.o(.text.PN532_recv_ack) for PN532_recv_ack
    pn532.o(.text.PN532_Ntag2xxWriteBlock) refers to pn532.o(.bss.PN532_recv_buf) for PN532_recv_buf
    pn532.o(.text.PN532_Ntag2xxWriteBlock) refers to pn532.o(.text.PN532_recv_data) for PN532_recv_data
    pn532.o(.ARM.exidx.text.PN532_Ntag2xxWriteBlock) refers to pn532.o(.text.PN532_Ntag2xxWriteBlock) for [Anonymous Symbol]
    pn532_hal.o(.text.i2c_master_callback) refers to pn532_hal.o(.bss.g_i2c_tx_complete) for g_i2c_tx_complete
    pn532_hal.o(.text.i2c_master_callback) refers to pn532_hal.o(.bss.g_i2c_rx_complete) for g_i2c_rx_complete
    pn532_hal.o(.text.i2c_master_callback) refers to pn532_hal.o(.bss.g_i2c_last_error) for g_i2c_last_error
    pn532_hal.o(.ARM.exidx.text.i2c_master_callback) refers to pn532_hal.o(.text.i2c_master_callback) for [Anonymous Symbol]
    pn532_hal.o(.text.g_system_tick) refers to pn532_hal.o(.bss.g_system_tick_ms) for g_system_tick_ms
    pn532_hal.o(.ARM.exidx.text.g_system_tick) refers to pn532_hal.o(.text.g_system_tick) for [Anonymous Symbol]
    pn532_hal.o(.text.PN532_GetTick) refers to pn532_hal.o(.bss.g_system_tick_ms) for g_system_tick_ms
    pn532_hal.o(.ARM.exidx.text.PN532_GetTick) refers to pn532_hal.o(.text.PN532_GetTick) for [Anonymous Symbol]
    pn532_hal.o(.text.PN532_I2C_Transmit) refers to pn532_hal.o(.bss.g_system_tick_ms) for g_system_tick_ms
    pn532_hal.o(.text.PN532_I2C_Transmit) refers to pn532_hal.o(.bss.g_i2c_tx_complete) for g_i2c_tx_complete
    pn532_hal.o(.text.PN532_I2C_Transmit) refers to hal_data.o(.rodata.g_i2c1) for g_i2c1
    pn532_hal.o(.text.PN532_I2C_Transmit) refers to pn532_hal.o(.bss.g_i2c_last_error) for g_i2c_last_error
    pn532_hal.o(.text.PN532_I2C_Transmit) refers to bsp_delay.o(.text.R_BSP_SoftwareDelay) for R_BSP_SoftwareDelay
    pn532_hal.o(.ARM.exidx.text.PN532_I2C_Transmit) refers to pn532_hal.o(.text.PN532_I2C_Transmit) for [Anonymous Symbol]
    pn532_hal.o(.text.PN532_I2C_Receive) refers to pn532_hal.o(.bss.g_system_tick_ms) for g_system_tick_ms
    pn532_hal.o(.text.PN532_I2C_Receive) refers to pn532_hal.o(.bss.g_i2c_rx_complete) for g_i2c_rx_complete
    pn532_hal.o(.text.PN532_I2C_Receive) refers to hal_data.o(.rodata.g_i2c1) for g_i2c1
    pn532_hal.o(.text.PN532_I2C_Receive) refers to pn532_hal.o(.bss.g_i2c_last_error) for g_i2c_last_error
    pn532_hal.o(.text.PN532_I2C_Receive) refers to bsp_delay.o(.text.R_BSP_SoftwareDelay) for R_BSP_SoftwareDelay
    pn532_hal.o(.ARM.exidx.text.PN532_I2C_Receive) refers to pn532_hal.o(.text.PN532_I2C_Receive) for [Anonymous Symbol]
    pn532_hal.o(.text.PN532_Init_Hardware) refers to hal_data.o(.rodata.g_i2c1) for g_i2c1
    pn532_hal.o(.text.PN532_Init_Hardware) refers to bsp_delay.o(.text.R_BSP_SoftwareDelay) for R_BSP_SoftwareDelay
    pn532_hal.o(.ARM.exidx.text.PN532_Init_Hardware) refers to pn532_hal.o(.text.PN532_Init_Hardware) for [Anonymous Symbol]
    tjc_usart_hmi.o(.text.UART_HIM_Init) refers to hal_data.o(.rodata.g_uart5) for g_uart5
    tjc_usart_hmi.o(.text.UART_HIM_Init) refers to tjc_usart_hmi.o(.bss.ringBuffer) for ringBuffer
    tjc_usart_hmi.o(.ARM.exidx.text.UART_HIM_Init) refers to tjc_usart_hmi.o(.text.UART_HIM_Init) for [Anonymous Symbol]
    tjc_usart_hmi.o(.text.initRingBuffer) refers to tjc_usart_hmi.o(.bss.ringBuffer) for ringBuffer
    tjc_usart_hmi.o(.ARM.exidx.text.initRingBuffer) refers to tjc_usart_hmi.o(.text.initRingBuffer) for [Anonymous Symbol]
    tjc_usart_hmi.o(.ARM.exidx.text.intToStr) refers to tjc_usart_hmi.o(.text.intToStr) for [Anonymous Symbol]
    tjc_usart_hmi.o(.text.uart_send_char) refers to hal_data.o(.rodata.g_uart5) for g_uart5
    tjc_usart_hmi.o(.text.uart_send_char) refers to tjc_usart_hmi.o(.bss.g_uart5_tx_complete) for g_uart5_tx_complete
    tjc_usart_hmi.o(.ARM.exidx.text.uart_send_char) refers to tjc_usart_hmi.o(.text.uart_send_char) for [Anonymous Symbol]
    tjc_usart_hmi.o(.text.uart5_wait_for_tx) refers to tjc_usart_hmi.o(.bss.g_uart5_tx_complete) for g_uart5_tx_complete
    tjc_usart_hmi.o(.ARM.exidx.text.uart5_wait_for_tx) refers to tjc_usart_hmi.o(.text.uart5_wait_for_tx) for [Anonymous Symbol]
    tjc_usart_hmi.o(.text.uart_send_string) refers to hal_data.o(.rodata.g_uart5) for g_uart5
    tjc_usart_hmi.o(.text.uart_send_string) refers to tjc_usart_hmi.o(.bss.g_uart5_tx_complete) for g_uart5_tx_complete
    tjc_usart_hmi.o(.ARM.exidx.text.uart_send_string) refers to tjc_usart_hmi.o(.text.uart_send_string) for [Anonymous Symbol]
    tjc_usart_hmi.o(.text.tjc_send_string) refers to hal_data.o(.rodata.g_uart5) for g_uart5
    tjc_usart_hmi.o(.text.tjc_send_string) refers to tjc_usart_hmi.o(.bss.g_uart5_tx_complete) for g_uart5_tx_complete
    tjc_usart_hmi.o(.ARM.exidx.text.tjc_send_string) refers to tjc_usart_hmi.o(.text.tjc_send_string) for [Anonymous Symbol]
    tjc_usart_hmi.o(.text.tjc_send_txt) refers to tjc_usart_hmi.o(.text.uart_send_string) for uart_send_string
    tjc_usart_hmi.o(.text.tjc_send_txt) refers to hal_data.o(.rodata.g_uart5) for g_uart5
    tjc_usart_hmi.o(.text.tjc_send_txt) refers to tjc_usart_hmi.o(.bss.g_uart5_tx_complete) for g_uart5_tx_complete
    tjc_usart_hmi.o(.ARM.exidx.text.tjc_send_txt) refers to tjc_usart_hmi.o(.text.tjc_send_txt) for [Anonymous Symbol]
    tjc_usart_hmi.o(.text.tjc_send_val) refers to tjc_usart_hmi.o(.text.uart_send_string) for uart_send_string
    tjc_usart_hmi.o(.text.tjc_send_val) refers to hal_data.o(.rodata.g_uart5) for g_uart5
    tjc_usart_hmi.o(.text.tjc_send_val) refers to tjc_usart_hmi.o(.bss.g_uart5_tx_complete) for g_uart5_tx_complete
    tjc_usart_hmi.o(.text.tjc_send_val) refers to tjc_usart_hmi.o(.text.intToStr) for intToStr
    tjc_usart_hmi.o(.ARM.exidx.text.tjc_send_val) refers to tjc_usart_hmi.o(.text.tjc_send_val) for [Anonymous Symbol]
    tjc_usart_hmi.o(.text.tjc_send_nstring) refers to hal_data.o(.rodata.g_uart5) for g_uart5
    tjc_usart_hmi.o(.text.tjc_send_nstring) refers to tjc_usart_hmi.o(.bss.g_uart5_tx_complete) for g_uart5_tx_complete
    tjc_usart_hmi.o(.ARM.exidx.text.tjc_send_nstring) refers to tjc_usart_hmi.o(.text.tjc_send_nstring) for [Anonymous Symbol]
    tjc_usart_hmi.o(.text.uart5_wait_for_rx) refers to tjc_usart_hmi.o(.bss.g_uart5_rx_complete) for g_uart5_rx_complete
    tjc_usart_hmi.o(.ARM.exidx.text.uart5_wait_for_rx) refers to tjc_usart_hmi.o(.text.uart5_wait_for_rx) for [Anonymous Symbol]
    tjc_usart_hmi.o(.text.uart5_callback) refers to tjc_usart_hmi.o(.bss.g_uart5_tx_complete) for g_uart5_tx_complete
    tjc_usart_hmi.o(.text.uart5_callback) refers to tjc_usart_hmi.o(.bss.g_uart5_rx_complete) for g_uart5_rx_complete
    tjc_usart_hmi.o(.text.uart5_callback) refers to tjc_usart_hmi.o(.bss.ringBuffer) for ringBuffer
    tjc_usart_hmi.o(.text.uart5_callback) refers to tjc_usart_hmi.o(.bss.USART_Rbuffer_Num) for USART_Rbuffer_Num
    tjc_usart_hmi.o(.ARM.exidx.text.uart5_callback) refers to tjc_usart_hmi.o(.text.uart5_callback) for [Anonymous Symbol]
    tjc_usart_hmi.o(.text.write1ByteToRingBuffer) refers to tjc_usart_hmi.o(.bss.ringBuffer) for ringBuffer
    tjc_usart_hmi.o(.ARM.exidx.text.write1ByteToRingBuffer) refers to tjc_usart_hmi.o(.text.write1ByteToRingBuffer) for [Anonymous Symbol]
    tjc_usart_hmi.o(.text.HIM_connection) refers to tjc_usart_hmi.o(.bss.a) for a
    tjc_usart_hmi.o(.text.HIM_connection) refers to tjc_usart_hmi.o(.bss.ringBuffer) for ringBuffer
    tjc_usart_hmi.o(.text.HIM_connection) refers to common_data.o(.rodata.g_ioport) for g_ioport
    tjc_usart_hmi.o(.text.HIM_connection) refers to tjc_usart_hmi.o(.bss.wifi_data_type) for wifi_data_type
    tjc_usart_hmi.o(.text.HIM_connection) refers to tjc_usart_hmi.o(.bss.wifi_frame_received) for wifi_frame_received
    tjc_usart_hmi.o(.text.HIM_connection) refers to tjc_usart_hmi.o(.bss.wifi_ssid_len) for wifi_ssid_len
    tjc_usart_hmi.o(.text.HIM_connection) refers to tjc_usart_hmi.o(.bss.wifi_ssid) for wifi_ssid
    tjc_usart_hmi.o(.text.HIM_connection) refers to tjc_usart_hmi.o(.bss.wifi_pwd_len) for wifi_pwd_len
    tjc_usart_hmi.o(.text.HIM_connection) refers to tjc_usart_hmi.o(.bss.wifi_pwd) for wifi_pwd
    tjc_usart_hmi.o(.text.HIM_connection) refers to printf8.o(i.__0printf$8) for __2printf
    tjc_usart_hmi.o(.text.HIM_connection) refers to memseta.o(.text) for __aeabi_memclr4
    tjc_usart_hmi.o(.text.HIM_connection) refers to tjc_usart_hmi.o(.rodata.str1.1) for .Lstr.11
    tjc_usart_hmi.o(.text.HIM_connection) refers to puts.o(i.puts) for puts
    tjc_usart_hmi.o(.text.HIM_connection) refers to esp_connect.o(.text.send_wifi_to_esp32) for send_wifi_to_esp32
    tjc_usart_hmi.o(.text.HIM_connection) refers to tjc_usart_hmi.o(.bss.lock_flag) for lock_flag
    tjc_usart_hmi.o(.text.HIM_connection) refers to r_ioport.o(.text.R_IOPORT_PinWrite) for R_IOPORT_PinWrite
    tjc_usart_hmi.o(.text.HIM_connection) refers to tjc_usart_hmi.o(.bss.str) for str
    tjc_usart_hmi.o(.text.HIM_connection) refers to tjc_usart_hmi.o(.text.tjc_send_string) for tjc_send_string
    tjc_usart_hmi.o(.text.HIM_connection) refers to as608pro.o(.text.finger_addtion) for finger_addtion
    tjc_usart_hmi.o(.text.HIM_connection) refers to bsp_delay.o(.text.R_BSP_SoftwareDelay) for R_BSP_SoftwareDelay
    tjc_usart_hmi.o(.text.HIM_connection) refers to as608pro.o(.text.AS608_GetFRNumber) for AS608_GetFRNumber
    tjc_usart_hmi.o(.text.HIM_connection) refers to as608pro.o(.text.AS608_DeleteFR) for AS608_DeleteFR
    tjc_usart_hmi.o(.text.HIM_connection) refers to printf8.o(i.__0sprintf$8) for __2sprintf
    tjc_usart_hmi.o(.text.HIM_connection) refers to k230_connect.o(.text.uart8_send_value) for uart8_send_value
    tjc_usart_hmi.o(.ARM.exidx.text.HIM_connection) refers to tjc_usart_hmi.o(.text.HIM_connection) for [Anonymous Symbol]
    tjc_usart_hmi.o(.text.getRingBufferLength) refers to tjc_usart_hmi.o(.bss.ringBuffer) for ringBuffer
    tjc_usart_hmi.o(.ARM.exidx.text.getRingBufferLength) refers to tjc_usart_hmi.o(.text.getRingBufferLength) for [Anonymous Symbol]
    tjc_usart_hmi.o(.text.read1ByteFromRingBuffer) refers to tjc_usart_hmi.o(.bss.ringBuffer) for ringBuffer
    tjc_usart_hmi.o(.ARM.exidx.text.read1ByteFromRingBuffer) refers to tjc_usart_hmi.o(.text.read1ByteFromRingBuffer) for [Anonymous Symbol]
    tjc_usart_hmi.o(.text.deleteRingBuffer) refers to tjc_usart_hmi.o(.bss.ringBuffer) for ringBuffer
    tjc_usart_hmi.o(.ARM.exidx.text.deleteRingBuffer) refers to tjc_usart_hmi.o(.text.deleteRingBuffer) for [Anonymous Symbol]
    tjc_usart_hmi.o(.text.isRingBufferOverflow) refers to tjc_usart_hmi.o(.bss.ringBuffer) for ringBuffer
    tjc_usart_hmi.o(.ARM.exidx.text.isRingBufferOverflow) refers to tjc_usart_hmi.o(.text.isRingBufferOverflow) for [Anonymous Symbol]
    k230_connect.o(.text.uart8_wait_for_tx) refers to k230_connect.o(.bss.g_uart8_tx_complete) for g_uart8_tx_complete
    k230_connect.o(.ARM.exidx.text.uart8_wait_for_tx) refers to k230_connect.o(.text.uart8_wait_for_tx) for [Anonymous Symbol]
    k230_connect.o(.text.uart8_wait_for_rx) refers to k230_connect.o(.bss.g_uart8_rx_complete) for g_uart8_rx_complete
    k230_connect.o(.ARM.exidx.text.uart8_wait_for_rx) refers to k230_connect.o(.text.uart8_wait_for_rx) for [Anonymous Symbol]
    k230_connect.o(.text.process_uart8_data) refers to k230_connect.o(.bss.g_received_value) for g_received_value
    k230_connect.o(.text.process_uart8_data) refers to k230_connect.o(.bss.last_g_received_value) for last_g_received_value
    k230_connect.o(.text.process_uart8_data) refers to k230_connect.o(.bss.str3) for str3
    k230_connect.o(.text.process_uart8_data) refers to tjc_usart_hmi.o(.text.tjc_send_string) for tjc_send_string
    k230_connect.o(.text.process_uart8_data) refers to esp_connect.o(.text.uart2_send_value) for uart2_send_value
    k230_connect.o(.text.process_uart8_data) refers to asr_pro.o(.text.uart9_send_value) for uart9_send_value
    k230_connect.o(.text.process_uart8_data) refers to esp_connect.o(.text.dakai_clock_display) for dakai_clock_display
    k230_connect.o(.text.process_uart8_data) refers to motor.o(.bss.motor_flag) for motor_flag
    k230_connect.o(.ARM.exidx.text.process_uart8_data) refers to k230_connect.o(.text.process_uart8_data) for [Anonymous Symbol]
    k230_connect.o(.text.uart8_callback) refers to k230_connect.o(.bss.uart8_rx_index) for uart8_rx_index
    k230_connect.o(.text.uart8_callback) refers to k230_connect.o(.bss.g_uart8_tx_complete) for g_uart8_tx_complete
    k230_connect.o(.text.uart8_callback) refers to k230_connect.o(.bss.uart8_rx_buffer) for uart8_rx_buffer
    k230_connect.o(.text.uart8_callback) refers to memcpya.o(.text) for __aeabi_memcpy
    k230_connect.o(.text.uart8_callback) refers to atoi.o(.text) for atoi
    k230_connect.o(.text.uart8_callback) refers to k230_connect.o(.bss.g_received_value) for g_received_value
    k230_connect.o(.ARM.exidx.text.uart8_callback) refers to k230_connect.o(.text.uart8_callback) for [Anonymous Symbol]
    k230_connect.o(.text.uart8_send_value) refers to printf8.o(i.__0sprintf$8) for __2sprintf
    k230_connect.o(.text.uart8_send_value) refers to strlen.o(.text) for strlen
    k230_connect.o(.text.uart8_send_value) refers to hal_data.o(.bss.g_uart8_ctrl) for g_uart8_ctrl
    k230_connect.o(.text.uart8_send_value) refers to r_sci_uart.o(.text.R_SCI_UART_Write) for R_SCI_UART_Write
    k230_connect.o(.text.uart8_send_value) refers to k230_connect.o(.bss.g_uart8_tx_complete) for g_uart8_tx_complete
    k230_connect.o(.ARM.exidx.text.uart8_send_value) refers to k230_connect.o(.text.uart8_send_value) for [Anonymous Symbol]
    k230_connect.o(.text.uart8_process) refers to k230_connect.o(.text.process_uart8_data) for process_uart8_data
    k230_connect.o(.ARM.exidx.text.uart8_process) refers to k230_connect.o(.text.uart8_process) for [Anonymous Symbol]
    k230_connect.o(.text.uart8_init) refers to k230_connect.o(.bss.uart8_rx_buffer) for uart8_rx_buffer
    k230_connect.o(.text.uart8_init) refers to k230_connect.o(.bss.uart8_rx_index) for uart8_rx_index
    k230_connect.o(.text.uart8_init) refers to k230_connect.o(.bss.g_received_value) for g_received_value
    k230_connect.o(.text.uart8_init) refers to hal_data.o(.rodata.g_uart8) for g_uart8
    k230_connect.o(.ARM.exidx.text.uart8_init) refers to k230_connect.o(.text.uart8_init) for [Anonymous Symbol]
    esp_connect.o(.text) refers (Special) to _scanf_int.o(.text) for _scanf_int
    esp_connect.o(.text.uart2_wait_for_tx) refers (Special) to _scanf_int.o(.text) for _scanf_int
    esp_connect.o(.text.uart2_wait_for_tx) refers to esp_connect.o(.bss.g_uart2_tx_complete) for g_uart2_tx_complete
    esp_connect.o(.ARM.exidx.text.uart2_wait_for_tx) refers (Special) to _scanf_int.o(.text) for _scanf_int
    esp_connect.o(.ARM.exidx.text.uart2_wait_for_tx) refers to esp_connect.o(.text.uart2_wait_for_tx) for [Anonymous Symbol]
    esp_connect.o(.text.uart2_wait_for_rx) refers (Special) to _scanf_int.o(.text) for _scanf_int
    esp_connect.o(.text.uart2_wait_for_rx) refers to esp_connect.o(.bss.g_uart2_rx_complete) for g_uart2_rx_complete
    esp_connect.o(.ARM.exidx.text.uart2_wait_for_rx) refers (Special) to _scanf_int.o(.text) for _scanf_int
    esp_connect.o(.ARM.exidx.text.uart2_wait_for_rx) refers to esp_connect.o(.text.uart2_wait_for_rx) for [Anonymous Symbol]
    esp_connect.o(.text.timer_callback) refers (Special) to _scanf_int.o(.text) for _scanf_int
    esp_connect.o(.text.timer_callback) refers to esp_connect.o(.bss.g_clock_running) for g_clock_running
    esp_connect.o(.text.timer_callback) refers to esp_connect.o(.bss.g_timer_count) for g_timer_count
    esp_connect.o(.text.timer_callback) refers to esp_connect.o(.bss.g_current_time) for g_current_time
    esp_connect.o(.ARM.exidx.text.timer_callback) refers (Special) to _scanf_int.o(.text) for _scanf_int
    esp_connect.o(.ARM.exidx.text.timer_callback) refers to esp_connect.o(.text.timer_callback) for [Anonymous Symbol]
    esp_connect.o(.text.process_uart2_data) refers (Special) to _scanf_int.o(.text) for _scanf_int
    esp_connect.o(.text.process_uart2_data) refers to esp_connect.o(.bss.g_time_valid) for g_time_valid
    esp_connect.o(.text.process_uart2_data) refers to esp_connect.o(.bss.g_received_time) for g_received_time
    esp_connect.o(.text.process_uart2_data) refers to printf8.o(i.__0printf$8) for __2printf
    esp_connect.o(.text.process_uart2_data) refers to __0sscanf.o(.text) for __0sscanf
    esp_connect.o(.text.process_uart2_data) refers to esp_connect.o(.bss.g_current_time) for g_current_time
    esp_connect.o(.text.process_uart2_data) refers to esp_connect.o(.bss.str5) for str5
    esp_connect.o(.text.process_uart2_data) refers to esp_connect.o(.bss.g_timer_count) for g_timer_count
    esp_connect.o(.text.process_uart2_data) refers to esp_connect.o(.bss.g_clock_running) for g_clock_running
    esp_connect.o(.text.process_uart2_data) refers to esp_connect.o(.rodata.str1.1) for .L.str.2
    esp_connect.o(.text.process_uart2_data) refers to printf8.o(i.__0sprintf$8) for __2sprintf
    esp_connect.o(.text.process_uart2_data) refers to tjc_usart_hmi.o(.text.tjc_send_string) for tjc_send_string
    esp_connect.o(.text.process_uart2_data) refers to esp_connect.o(.bss.g_received_value) for g_received_value
    esp_connect.o(.text.process_uart2_data) refers to puts.o(i.puts) for puts
    esp_connect.o(.ARM.exidx.text.process_uart2_data) refers (Special) to _scanf_int.o(.text) for _scanf_int
    esp_connect.o(.ARM.exidx.text.process_uart2_data) refers to esp_connect.o(.text.process_uart2_data) for [Anonymous Symbol]
    esp_connect.o(.text.update_clock_display) refers (Special) to _scanf_int.o(.text) for _scanf_int
    esp_connect.o(.text.update_clock_display) refers to esp_connect.o(.bss.g_clock_running) for g_clock_running
    esp_connect.o(.text.update_clock_display) refers to esp_connect.o(.bss.g_current_time) for g_current_time
    esp_connect.o(.text.update_clock_display) refers to esp_connect.o(.data.update_clock_display.last_second) for update_clock_display.last_second
    esp_connect.o(.text.update_clock_display) refers to esp_connect.o(.bss.str5) for str5
    esp_connect.o(.text.update_clock_display) refers to esp_connect.o(.rodata.str1.1) for .L.str.2
    esp_connect.o(.text.update_clock_display) refers to printf8.o(i.__0sprintf$8) for __2sprintf
    esp_connect.o(.text.update_clock_display) refers to tjc_usart_hmi.o(.text.tjc_send_string) for tjc_send_string
    esp_connect.o(.ARM.exidx.text.update_clock_display) refers (Special) to _scanf_int.o(.text) for _scanf_int
    esp_connect.o(.ARM.exidx.text.update_clock_display) refers to esp_connect.o(.text.update_clock_display) for [Anonymous Symbol]
    esp_connect.o(.text.dakai_clock_display) refers (Special) to _scanf_int.o(.text) for _scanf_int
    esp_connect.o(.text.dakai_clock_display) refers to bsp_delay.o(.text.R_BSP_SoftwareDelay) for R_BSP_SoftwareDelay
    esp_connect.o(.text.dakai_clock_display) refers to esp_connect.o(.bss.g_current_time) for g_current_time
    esp_connect.o(.text.dakai_clock_display) refers to esp_connect.o(.bss.str5) for str5
    esp_connect.o(.text.dakai_clock_display) refers to printf8.o(i.__0sprintf$8) for __2sprintf
    esp_connect.o(.text.dakai_clock_display) refers to tjc_usart_hmi.o(.text.tjc_send_string) for tjc_send_string
    esp_connect.o(.ARM.exidx.text.dakai_clock_display) refers (Special) to _scanf_int.o(.text) for _scanf_int
    esp_connect.o(.ARM.exidx.text.dakai_clock_display) refers to esp_connect.o(.text.dakai_clock_display) for [Anonymous Symbol]
    esp_connect.o(.text.uart2_callback) refers (Special) to _scanf_int.o(.text) for _scanf_int
    esp_connect.o(.text.uart2_callback) refers to esp_connect.o(.bss.uart2_rx_index) for uart2_rx_index
    esp_connect.o(.text.uart2_callback) refers to esp_connect.o(.bss.g_uart2_tx_complete) for g_uart2_tx_complete
    esp_connect.o(.text.uart2_callback) refers to esp_connect.o(.bss.uart2_rx_buffer) for uart2_rx_buffer
    esp_connect.o(.text.uart2_callback) refers to strchr.o(.text) for strchr
    esp_connect.o(.text.uart2_callback) refers to esp_connect.o(.bss.g_received_time) for g_received_time
    esp_connect.o(.text.uart2_callback) refers to strcpy.o(.text) for strcpy
    esp_connect.o(.text.uart2_callback) refers to strlen.o(.text) for strlen
    esp_connect.o(.text.uart2_callback) refers to esp_connect.o(.bss.g_time_valid) for g_time_valid
    esp_connect.o(.text.uart2_callback) refers to memcpya.o(.text) for __aeabi_memcpy
    esp_connect.o(.text.uart2_callback) refers to atoi.o(.text) for atoi
    esp_connect.o(.text.uart2_callback) refers to esp_connect.o(.bss.g_received_value) for g_received_value
    esp_connect.o(.ARM.exidx.text.uart2_callback) refers (Special) to _scanf_int.o(.text) for _scanf_int
    esp_connect.o(.ARM.exidx.text.uart2_callback) refers to esp_connect.o(.text.uart2_callback) for [Anonymous Symbol]
    esp_connect.o(.text.uart2_send_value) refers (Special) to _scanf_int.o(.text) for _scanf_int
    esp_connect.o(.text.uart2_send_value) refers to printf8.o(i.__0sprintf$8) for __2sprintf
    esp_connect.o(.text.uart2_send_value) refers to esp_connect.o(.text.uart2_send_string) for uart2_send_string
    esp_connect.o(.ARM.exidx.text.uart2_send_value) refers (Special) to _scanf_int.o(.text) for _scanf_int
    esp_connect.o(.ARM.exidx.text.uart2_send_value) refers to esp_connect.o(.text.uart2_send_value) for [Anonymous Symbol]
    esp_connect.o(.text.uart2_send_string) refers (Special) to _scanf_int.o(.text) for _scanf_int
    esp_connect.o(.text.uart2_send_string) refers to strlen.o(.text) for strlen
    esp_connect.o(.text.uart2_send_string) refers to hal_data.o(.bss.g_uart2_ctrl) for g_uart2_ctrl
    esp_connect.o(.text.uart2_send_string) refers to r_sci_uart.o(.text.R_SCI_UART_Write) for R_SCI_UART_Write
    esp_connect.o(.text.uart2_send_string) refers to esp_connect.o(.bss.g_uart2_tx_complete) for g_uart2_tx_complete
    esp_connect.o(.ARM.exidx.text.uart2_send_string) refers (Special) to _scanf_int.o(.text) for _scanf_int
    esp_connect.o(.ARM.exidx.text.uart2_send_string) refers to esp_connect.o(.text.uart2_send_string) for [Anonymous Symbol]
    esp_connect.o(.text.send_wifi_to_esp32) refers (Special) to _scanf_int.o(.text) for _scanf_int
    esp_connect.o(.text.send_wifi_to_esp32) refers to printf8.o(i.__0snprintf$8) for __2snprintf
    esp_connect.o(.text.send_wifi_to_esp32) refers to esp_connect.o(.text.uart2_send_string) for uart2_send_string
    esp_connect.o(.text.send_wifi_to_esp32) refers to printf8.o(i.__0printf$8) for __2printf
    esp_connect.o(.ARM.exidx.text.send_wifi_to_esp32) refers (Special) to _scanf_int.o(.text) for _scanf_int
    esp_connect.o(.ARM.exidx.text.send_wifi_to_esp32) refers to esp_connect.o(.text.send_wifi_to_esp32) for [Anonymous Symbol]
    esp_connect.o(.text.uart2_init) refers (Special) to _scanf_int.o(.text) for _scanf_int
    esp_connect.o(.text.uart2_init) refers to esp_connect.o(.bss.uart2_rx_buffer) for uart2_rx_buffer
    esp_connect.o(.text.uart2_init) refers to memseta.o(.text) for __aeabi_memclr4
    esp_connect.o(.text.uart2_init) refers to esp_connect.o(.bss.uart2_rx_index) for uart2_rx_index
    esp_connect.o(.text.uart2_init) refers to esp_connect.o(.bss.uart2_frame_ready) for uart2_frame_ready
    esp_connect.o(.text.uart2_init) refers to esp_connect.o(.bss.g_data_valid) for g_data_valid
    esp_connect.o(.text.uart2_init) refers to esp_connect.o(.bss.g_received_value) for g_received_value
    esp_connect.o(.text.uart2_init) refers to esp_connect.o(.bss.g_time_valid) for g_time_valid
    esp_connect.o(.text.uart2_init) refers to esp_connect.o(.bss.g_received_time) for g_received_time
    esp_connect.o(.text.uart2_init) refers to hal_data.o(.rodata.g_uart2) for g_uart2
    esp_connect.o(.ARM.exidx.text.uart2_init) refers (Special) to _scanf_int.o(.text) for _scanf_int
    esp_connect.o(.ARM.exidx.text.uart2_init) refers to esp_connect.o(.text.uart2_init) for [Anonymous Symbol]
    esp_connect.o(.bss.g_uart2_tx_complete) refers (Special) to _scanf_int.o(.text) for _scanf_int
    esp_connect.o(.bss.g_uart2_rx_complete) refers (Special) to _scanf_int.o(.text) for _scanf_int
    esp_connect.o(.bss.g_clock_running) refers (Special) to _scanf_int.o(.text) for _scanf_int
    esp_connect.o(.bss.g_timer_count) refers (Special) to _scanf_int.o(.text) for _scanf_int
    esp_connect.o(.bss.g_current_time) refers (Special) to _scanf_int.o(.text) for _scanf_int
    esp_connect.o(.bss.g_time_valid) refers (Special) to _scanf_int.o(.text) for _scanf_int
    esp_connect.o(.bss.g_received_time) refers (Special) to _scanf_int.o(.text) for _scanf_int
    esp_connect.o(.bss.str5) refers (Special) to _scanf_int.o(.text) for _scanf_int
    esp_connect.o(.rodata.str1.1) refers (Special) to _scanf_int.o(.text) for _scanf_int
    esp_connect.o(.bss.g_received_value) refers (Special) to _scanf_int.o(.text) for _scanf_int
    esp_connect.o(.data.update_clock_display.last_second) refers (Special) to _scanf_int.o(.text) for _scanf_int
    esp_connect.o(.bss.uart2_rx_index) refers (Special) to _scanf_int.o(.text) for _scanf_int
    esp_connect.o(.bss.uart2_rx_buffer) refers (Special) to _scanf_int.o(.text) for _scanf_int
    esp_connect.o(.bss.uart2_frame_ready) refers (Special) to _scanf_int.o(.text) for _scanf_int
    esp_connect.o(.bss.g_data_valid) refers (Special) to _scanf_int.o(.text) for _scanf_int
    asr_pro.o(.text.uart9_wait_for_tx) refers to asr_pro.o(.bss.g_uart9_tx_complete) for g_uart9_tx_complete
    asr_pro.o(.ARM.exidx.text.uart9_wait_for_tx) refers to asr_pro.o(.text.uart9_wait_for_tx) for [Anonymous Symbol]
    asr_pro.o(.text.uart9_wait_for_rx) refers to asr_pro.o(.bss.g_uart9_rx_complete) for g_uart9_rx_complete
    asr_pro.o(.ARM.exidx.text.uart9_wait_for_rx) refers to asr_pro.o(.text.uart9_wait_for_rx) for [Anonymous Symbol]
    asr_pro.o(.text.process_uart9_data) refers to asr_pro.o(.data.g_received_value) for g_received_value
    asr_pro.o(.text.process_uart9_data) refers to puts.o(i.puts) for puts
    asr_pro.o(.text.process_uart9_data) refers to asr_pro.o(.rodata.str1.1) for [Anonymous Symbol]
    asr_pro.o(.ARM.exidx.text.process_uart9_data) refers to asr_pro.o(.text.process_uart9_data) for [Anonymous Symbol]
    asr_pro.o(.text.uart9_callback) refers to asr_pro.o(.bss.g_uart9_tx_complete) for g_uart9_tx_complete
    asr_pro.o(.text.uart9_callback) refers to asr_pro.o(.bss.uart9_rx_index) for uart9_rx_index
    asr_pro.o(.text.uart9_callback) refers to asr_pro.o(.bss.uart9_rx_buffer) for uart9_rx_buffer
    asr_pro.o(.text.uart9_callback) refers to memcpya.o(.text) for __aeabi_memcpy
    asr_pro.o(.text.uart9_callback) refers to atoi.o(.text) for atoi
    asr_pro.o(.text.uart9_callback) refers to asr_pro.o(.data.g_received_value) for g_received_value
    asr_pro.o(.ARM.exidx.text.uart9_callback) refers to asr_pro.o(.text.uart9_callback) for [Anonymous Symbol]
    asr_pro.o(.text.uart9_send_value) refers to printf8.o(i.__0sprintf$8) for __2sprintf
    asr_pro.o(.text.uart9_send_value) refers to strlen.o(.text) for strlen
    asr_pro.o(.text.uart9_send_value) refers to hal_data.o(.bss.g_uart9_ctrl) for g_uart9_ctrl
    asr_pro.o(.text.uart9_send_value) refers to r_sci_uart.o(.text.R_SCI_UART_Write) for R_SCI_UART_Write
    asr_pro.o(.text.uart9_send_value) refers to asr_pro.o(.bss.g_uart9_tx_complete) for g_uart9_tx_complete
    asr_pro.o(.ARM.exidx.text.uart9_send_value) refers to asr_pro.o(.text.uart9_send_value) for [Anonymous Symbol]
    asr_pro.o(.text.uart9_init) refers to hal_data.o(.rodata.g_uart9) for g_uart9
    asr_pro.o(.ARM.exidx.text.uart9_init) refers to asr_pro.o(.text.uart9_init) for [Anonymous Symbol]
    motor.o(.text.motor_init) refers to hal_data.o(.bss.g_timer1_ctrl) for g_timer1_ctrl
    motor.o(.text.motor_init) refers to hal_data.o(.rodata.g_timer1_cfg) for g_timer1_cfg
    motor.o(.text.motor_init) refers to r_gpt.o(.text.R_GPT_Open) for R_GPT_Open
    motor.o(.text.motor_init) refers to hal_data.o(.bss.g_timer2_ctrl) for g_timer2_ctrl
    motor.o(.text.motor_init) refers to hal_data.o(.rodata.g_timer2_cfg) for g_timer2_cfg
    motor.o(.text.motor_init) refers to r_gpt.o(.text.R_GPT_Close) for R_GPT_Close
    motor.o(.text.motor_init) refers to motor.o(.bss.timer1_info) for timer1_info
    motor.o(.text.motor_init) refers to r_gpt.o(.text.R_GPT_InfoGet) for R_GPT_InfoGet
    motor.o(.text.motor_init) refers to motor.o(.bss.timer2_info) for timer2_info
    motor.o(.text.motor_init) refers to r_gpt.o(.text.R_GPT_Start) for R_GPT_Start
    motor.o(.text.motor_init) refers to r_gpt.o(.text.R_GPT_Stop) for R_GPT_Stop
    motor.o(.text.motor_init) refers to r_gpt.o(.text.R_GPT_DutyCycleSet) for R_GPT_DutyCycleSet
    motor.o(.ARM.exidx.text.motor_init) refers to motor.o(.text.motor_init) for [Anonymous Symbol]
    motor.o(.text.motor_set_pulse) refers to motor.o(.bss.timer1_info) for timer1_info
    motor.o(.text.motor_set_pulse) refers to motor.o(.bss.timer2_info) for timer2_info
    motor.o(.text.motor_set_pulse) refers to hal_data.o(.bss.g_timer2_ctrl) for g_timer2_ctrl
    motor.o(.text.motor_set_pulse) refers to r_gpt.o(.text.R_GPT_DutyCycleSet) for R_GPT_DutyCycleSet
    motor.o(.text.motor_set_pulse) refers to hal_data.o(.bss.g_timer1_ctrl) for g_timer1_ctrl
    motor.o(.ARM.exidx.text.motor_set_pulse) refers to motor.o(.text.motor_set_pulse) for [Anonymous Symbol]
    motor.o(.text.motor_set_angle) refers to motor.o(.text.motor_set_pulse) for motor_set_pulse
    motor.o(.ARM.exidx.text.motor_set_angle) refers to motor.o(.text.motor_set_angle) for [Anonymous Symbol]
    motor.o(.text.motor_stop) refers to hal_data.o(.bss.g_timer1_ctrl) for g_timer1_ctrl
    motor.o(.text.motor_stop) refers to hal_data.o(.bss.g_timer2_ctrl) for g_timer2_ctrl
    motor.o(.text.motor_stop) refers to r_gpt.o(.text.R_GPT_DutyCycleSet) for R_GPT_DutyCycleSet
    motor.o(.ARM.exidx.text.motor_stop) refers to motor.o(.text.motor_stop) for [Anonymous Symbol]
    motor.o(.text.motor_deinit) refers to hal_data.o(.bss.g_timer1_ctrl) for g_timer1_ctrl
    motor.o(.text.motor_deinit) refers to r_gpt.o(.text.R_GPT_DutyCycleSet) for R_GPT_DutyCycleSet
    motor.o(.text.motor_deinit) refers to hal_data.o(.bss.g_timer2_ctrl) for g_timer2_ctrl
    motor.o(.text.motor_deinit) refers to r_gpt.o(.text.R_GPT_Stop) for R_GPT_Stop
    motor.o(.text.motor_deinit) refers to r_gpt.o(.text.R_GPT_Close) for R_GPT_Close
    motor.o(.ARM.exidx.text.motor_deinit) refers to motor.o(.text.motor_deinit) for [Anonymous Symbol]
    motor.o(.text.motor_task) refers to motor.o(.bss.motor_flag) for motor_flag
    motor.o(.text.motor_task) refers to motor.o(.bss.timer1_info) for timer1_info
    motor.o(.text.motor_task) refers to hal_data.o(.bss.g_timer1_ctrl) for g_timer1_ctrl
    motor.o(.text.motor_task) refers to r_gpt.o(.text.R_GPT_DutyCycleSet) for R_GPT_DutyCycleSet
    motor.o(.text.motor_task) refers to motor.o(.bss.timer2_info) for timer2_info
    motor.o(.text.motor_task) refers to hal_data.o(.bss.g_timer2_ctrl) for g_timer2_ctrl
    motor.o(.ARM.exidx.text.motor_task) refers to motor.o(.text.motor_task) for [Anonymous Symbol]
    startup.o(.text.Reset_Handler) refers to system.o(.text.SystemInit) for SystemInit
    startup.o(.text.Reset_Handler) refers to main.o(.text.main) for main
    startup.o(.ARM.exidx.text.Reset_Handler) refers to startup.o(.text.Reset_Handler) for [Anonymous Symbol]
    startup.o(.ARM.exidx.text.Default_Handler) refers to startup.o(.text.Default_Handler) for [Anonymous Symbol]
    startup.o(.fixed_vectors) refers to startup.o(.bss.stack) for [Anonymous Symbol]
    startup.o(.fixed_vectors) refers to startup.o(.text.Reset_Handler) for Reset_Handler
    startup.o(.fixed_vectors) refers to bsp_group_irq.o(.text.NMI_Handler) for NMI_Handler
    startup.o(.fixed_vectors) refers to startup.o(.text.Default_Handler) for HardFault_Handler
    system.o(.text.SystemInit) refers to startup.o(.fixed_vectors) for __Vectors
    system.o(.text.SystemInit) refers to hal_entry.o(.text.R_BSP_WarmStart) for R_BSP_WarmStart
    system.o(.text.SystemInit) refers to bsp_clocks.o(.text.bsp_clock_init) for bsp_clock_init
    system.o(.text.SystemInit) refers to memseta.o(.text) for __aeabi_memclr4
    system.o(.text.SystemInit) refers to memcpya.o(.text) for __aeabi_memcpy4
    system.o(.text.SystemInit) refers to bsp_clocks.o(.text.SystemCoreClockUpdate) for SystemCoreClockUpdate
    system.o(.text.SystemInit) refers to bsp_clocks.o(.text.R_BSP_Init_RTC) for R_BSP_Init_RTC
    system.o(.text.SystemInit) refers to bsp_register_protection.o(.text.R_BSP_RegisterProtectDisable) for R_BSP_RegisterProtectDisable
    system.o(.text.SystemInit) refers to bsp_register_protection.o(.text.R_BSP_RegisterProtectEnable) for R_BSP_RegisterProtectEnable
    system.o(.text.SystemInit) refers to bsp_irq.o(.text.bsp_irq_cfg) for bsp_irq_cfg
    system.o(.text.SystemInit) refers to bsp_common.o(.text.bsp_init_internal) for bsp_init
    system.o(.ARM.exidx.text.SystemInit) refers to system.o(.text.SystemInit) for [Anonymous Symbol]
    system.o(.ARM.exidx.text.R_BSP_WarmStart) refers to system.o(.text.R_BSP_WarmStart) for [Anonymous Symbol]
    bsp_clocks.o(.ARM.exidx.text.bsp_prv_operating_mode_set) refers to bsp_clocks.o(.text.bsp_prv_operating_mode_set) for [Anonymous Symbol]
    bsp_clocks.o(.text.bsp_prv_prepare_pll) refers to bsp_clocks.o(.bss.noinit) for g_clock_freq
    bsp_clocks.o(.ARM.exidx.text.bsp_prv_prepare_pll) refers to bsp_clocks.o(.text.bsp_prv_prepare_pll) for [Anonymous Symbol]
    bsp_clocks.o(.text.SystemCoreClockUpdate) refers to bsp_clocks.o(.bss.noinit) for g_clock_freq
    bsp_clocks.o(.text.SystemCoreClockUpdate) refers to system.o(.bss.SystemCoreClock) for SystemCoreClock
    bsp_clocks.o(.ARM.exidx.text.SystemCoreClockUpdate) refers to bsp_clocks.o(.text.SystemCoreClockUpdate) for [Anonymous Symbol]
    bsp_clocks.o(.ARM.exidx.text.prv_clock_dividers_set) refers to bsp_clocks.o(.text.prv_clock_dividers_set) for [Anonymous Symbol]
    bsp_clocks.o(.text.bsp_prv_clock_set) refers to bsp_clocks.o(.bss.noinit) for g_clock_freq
    bsp_clocks.o(.text.bsp_prv_clock_set) refers to system.o(.bss.SystemCoreClock) for SystemCoreClock
    bsp_clocks.o(.ARM.exidx.text.bsp_prv_clock_set) refers to bsp_clocks.o(.text.bsp_prv_clock_set) for [Anonymous Symbol]
    bsp_clocks.o(.text.bsp_clock_init) refers to bsp_clocks.o(.bss.noinit) for g_clock_freq
    bsp_clocks.o(.text.bsp_clock_init) refers to system.o(.bss.SystemCoreClock) for SystemCoreClock
    bsp_clocks.o(.text.bsp_clock_init) refers to bsp_delay.o(.text.R_BSP_SoftwareDelay) for R_BSP_SoftwareDelay
    bsp_clocks.o(.text.bsp_clock_init) refers to bsp_clocks.o(.text.R_BSP_SubClockStabilizeWaitAfterReset) for R_BSP_SubClockStabilizeWaitAfterReset
    bsp_clocks.o(.ARM.exidx.text.bsp_clock_init) refers to bsp_clocks.o(.text.bsp_clock_init) for [Anonymous Symbol]
    bsp_clocks.o(.text.R_BSP_SubClockStabilizeWait) refers to bsp_delay.o(.text.R_BSP_SoftwareDelay) for R_BSP_SoftwareDelay
    bsp_clocks.o(.ARM.exidx.text.R_BSP_SubClockStabilizeWait) refers to bsp_clocks.o(.text.R_BSP_SubClockStabilizeWait) for [Anonymous Symbol]
    bsp_clocks.o(.ARM.exidx.text.R_BSP_SubClockStabilizeWaitAfterReset) refers to bsp_clocks.o(.text.R_BSP_SubClockStabilizeWaitAfterReset) for [Anonymous Symbol]
    bsp_clocks.o(.ARM.exidx.text.R_BSP_OctaclkUpdate) refers to bsp_clocks.o(.text.R_BSP_OctaclkUpdate) for [Anonymous Symbol]
    bsp_clocks.o(.text.R_BSP_SourceClockHzGet) refers to bsp_clocks.o(.bss.noinit) for g_clock_freq
    bsp_clocks.o(.ARM.exidx.text.R_BSP_SourceClockHzGet) refers to bsp_clocks.o(.text.R_BSP_SourceClockHzGet) for [Anonymous Symbol]
    bsp_clocks.o(.text.R_BSP_Init_RTC) refers to bsp_delay.o(.text.R_BSP_SoftwareDelay) for R_BSP_SoftwareDelay
    bsp_clocks.o(.text.R_BSP_Init_RTC) refers to bsp_register_protection.o(.text.R_BSP_RegisterProtectDisable) for R_BSP_RegisterProtectDisable
    bsp_clocks.o(.text.R_BSP_Init_RTC) refers to bsp_register_protection.o(.text.R_BSP_RegisterProtectEnable) for R_BSP_RegisterProtectEnable
    bsp_clocks.o(.ARM.exidx.text.R_BSP_Init_RTC) refers to bsp_clocks.o(.text.R_BSP_Init_RTC) for [Anonymous Symbol]
    bsp_common.o(.ARM.exidx.text.bsp_init_internal) refers to bsp_common.o(.text.bsp_init_internal) for [Anonymous Symbol]
    bsp_common.o(.ARM.exidx.text.R_FSP_VersionGet) refers to bsp_common.o(.text.R_FSP_VersionGet) for [Anonymous Symbol]
    bsp_common.o(.ARM.exidx.text.__aeabi_assert) refers to bsp_common.o(.text.__aeabi_assert) for [Anonymous Symbol]
    bsp_delay.o(.text.R_BSP_SoftwareDelay) refers to system.o(.bss.SystemCoreClock) for SystemCoreClock
    bsp_delay.o(.text.R_BSP_SoftwareDelay) refers to bsp_delay.o(.text.bsp_prv_software_delay_loop) for bsp_prv_software_delay_loop
    bsp_delay.o(.ARM.exidx.text.R_BSP_SoftwareDelay) refers to bsp_delay.o(.text.R_BSP_SoftwareDelay) for [Anonymous Symbol]
    bsp_delay.o(.ARM.exidx.text.bsp_prv_software_delay_loop) refers to bsp_delay.o(.text.bsp_prv_software_delay_loop) for [Anonymous Symbol]
    bsp_group_irq.o(.text.R_BSP_GroupIrqWrite) refers to bsp_group_irq.o(.bss.g_bsp_group_irq_sources) for g_bsp_group_irq_sources
    bsp_group_irq.o(.ARM.exidx.text.R_BSP_GroupIrqWrite) refers to bsp_group_irq.o(.text.R_BSP_GroupIrqWrite) for [Anonymous Symbol]
    bsp_group_irq.o(.text.NMI_Handler) refers to bsp_group_irq.o(.bss.g_bsp_group_irq_sources) for g_bsp_group_irq_sources
    bsp_group_irq.o(.ARM.exidx.text.NMI_Handler) refers to bsp_group_irq.o(.text.NMI_Handler) for [Anonymous Symbol]
    bsp_irq.o(.text.bsp_irq_cfg) refers to bsp_register_protection.o(.text.R_BSP_RegisterProtectDisable) for R_BSP_RegisterProtectDisable
    bsp_irq.o(.text.bsp_irq_cfg) refers to vector_data.o(.rodata.g_interrupt_event_link_select) for g_interrupt_event_link_select
    bsp_irq.o(.text.bsp_irq_cfg) refers to bsp_register_protection.o(.text.R_BSP_RegisterProtectEnable) for R_BSP_RegisterProtectEnable
    bsp_irq.o(.ARM.exidx.text.bsp_irq_cfg) refers to bsp_irq.o(.text.bsp_irq_cfg) for [Anonymous Symbol]
    bsp_register_protection.o(.text.R_BSP_RegisterProtectEnable) refers to bsp_register_protection.o(.bss.g_protect_counters) for g_protect_counters
    bsp_register_protection.o(.text.R_BSP_RegisterProtectEnable) refers to bsp_register_protection.o(.rodata.cst8) for g_prcr_masks
    bsp_register_protection.o(.ARM.exidx.text.R_BSP_RegisterProtectEnable) refers to bsp_register_protection.o(.text.R_BSP_RegisterProtectEnable) for [Anonymous Symbol]
    bsp_register_protection.o(.text.R_BSP_RegisterProtectDisable) refers to bsp_register_protection.o(.bss.g_protect_counters) for g_protect_counters
    bsp_register_protection.o(.text.R_BSP_RegisterProtectDisable) refers to bsp_register_protection.o(.rodata.cst8) for g_prcr_masks
    bsp_register_protection.o(.ARM.exidx.text.R_BSP_RegisterProtectDisable) refers to bsp_register_protection.o(.text.R_BSP_RegisterProtectDisable) for [Anonymous Symbol]
    r_gpt.o(.text.R_GPT_Open) refers to r_gpt.o(.text.gpt_calculate_duty_cycle) for gpt_calculate_duty_cycle
    r_gpt.o(.text.R_GPT_Open) refers to r_gpt.o(.text.r_gpt_enable_irq) for r_gpt_enable_irq
    r_gpt.o(.ARM.exidx.text.R_GPT_Open) refers to r_gpt.o(.text.R_GPT_Open) for [Anonymous Symbol]
    r_gpt.o(.ARM.exidx.text.R_GPT_Start) refers to r_gpt.o(.text.R_GPT_Start) for [Anonymous Symbol]
    r_gpt.o(.ARM.exidx.text.R_GPT_Stop) refers to r_gpt.o(.text.R_GPT_Stop) for [Anonymous Symbol]
    r_gpt.o(.ARM.exidx.text.R_GPT_Reset) refers to r_gpt.o(.text.R_GPT_Reset) for [Anonymous Symbol]
    r_gpt.o(.ARM.exidx.text.R_GPT_Enable) refers to r_gpt.o(.text.R_GPT_Enable) for [Anonymous Symbol]
    r_gpt.o(.ARM.exidx.text.R_GPT_Disable) refers to r_gpt.o(.text.R_GPT_Disable) for [Anonymous Symbol]
    r_gpt.o(.ARM.exidx.text.R_GPT_PeriodSet) refers to r_gpt.o(.text.R_GPT_PeriodSet) for [Anonymous Symbol]
    r_gpt.o(.text.R_GPT_DutyCycleSet) refers to r_gpt.o(.text.gpt_calculate_duty_cycle) for gpt_calculate_duty_cycle
    r_gpt.o(.ARM.exidx.text.R_GPT_DutyCycleSet) refers to r_gpt.o(.text.R_GPT_DutyCycleSet) for [Anonymous Symbol]
    r_gpt.o(.ARM.exidx.text.R_GPT_CompareMatchSet) refers to r_gpt.o(.text.R_GPT_CompareMatchSet) for [Anonymous Symbol]
    r_gpt.o(.text.R_GPT_InfoGet) refers to system.o(.bss.SystemCoreClock) for SystemCoreClock
    r_gpt.o(.ARM.exidx.text.R_GPT_InfoGet) refers to r_gpt.o(.text.R_GPT_InfoGet) for [Anonymous Symbol]
    r_gpt.o(.ARM.exidx.text.R_GPT_StatusGet) refers to r_gpt.o(.text.R_GPT_StatusGet) for [Anonymous Symbol]
    r_gpt.o(.ARM.exidx.text.R_GPT_CallbackSet) refers to r_gpt.o(.text.R_GPT_CallbackSet) for [Anonymous Symbol]
    r_gpt.o(.text.R_GPT_Close) refers to bsp_irq.o(.bss.gp_renesas_isr_context) for gp_renesas_isr_context
    r_gpt.o(.ARM.exidx.text.R_GPT_Close) refers to r_gpt.o(.text.R_GPT_Close) for [Anonymous Symbol]
    r_gpt.o(.ARM.exidx.text.gpt_calculate_duty_cycle) refers to r_gpt.o(.text.gpt_calculate_duty_cycle) for [Anonymous Symbol]
    r_gpt.o(.ARM.exidx.text.R_GPT_CounterSet) refers to r_gpt.o(.text.R_GPT_CounterSet) for [Anonymous Symbol]
    r_gpt.o(.ARM.exidx.text.R_GPT_OutputEnable) refers to r_gpt.o(.text.R_GPT_OutputEnable) for [Anonymous Symbol]
    r_gpt.o(.ARM.exidx.text.R_GPT_OutputDisable) refers to r_gpt.o(.text.R_GPT_OutputDisable) for [Anonymous Symbol]
    r_gpt.o(.ARM.exidx.text.R_GPT_AdcTriggerSet) refers to r_gpt.o(.text.R_GPT_AdcTriggerSet) for [Anonymous Symbol]
    r_gpt.o(.ARM.exidx.text.R_GPT_PwmOutputDelaySet) refers to r_gpt.o(.text.R_GPT_PwmOutputDelaySet) for [Anonymous Symbol]
    r_gpt.o(.ARM.exidx.text.R_GPT_PwmOutputDelayInitialize) refers to r_gpt.o(.text.R_GPT_PwmOutputDelayInitialize) for [Anonymous Symbol]
    r_gpt.o(.text.gpt_counter_overflow_isr) refers to bsp_irq.o(.bss.gp_renesas_isr_context) for gp_renesas_isr_context
    r_gpt.o(.ARM.exidx.text.gpt_counter_overflow_isr) refers to r_gpt.o(.text.gpt_counter_overflow_isr) for [Anonymous Symbol]
    r_gpt.o(.text.gpt_capture_compare_a_isr) refers to r_gpt.o(.text.r_gpt_ccmp_common_isr) for r_gpt_ccmp_common_isr
    r_gpt.o(.ARM.exidx.text.gpt_capture_compare_a_isr) refers to r_gpt.o(.text.gpt_capture_compare_a_isr) for [Anonymous Symbol]
    r_gpt.o(.text.r_gpt_ccmp_common_isr) refers to bsp_irq.o(.bss.gp_renesas_isr_context) for gp_renesas_isr_context
    r_gpt.o(.ARM.exidx.text.r_gpt_ccmp_common_isr) refers to r_gpt.o(.text.r_gpt_ccmp_common_isr) for [Anonymous Symbol]
    r_gpt.o(.text.gpt_capture_compare_b_isr) refers to r_gpt.o(.text.r_gpt_ccmp_common_isr) for r_gpt_ccmp_common_isr
    r_gpt.o(.ARM.exidx.text.gpt_capture_compare_b_isr) refers to r_gpt.o(.text.gpt_capture_compare_b_isr) for [Anonymous Symbol]
    r_gpt.o(.text.r_gpt_enable_irq) refers to bsp_irq.o(.bss.gp_renesas_isr_context) for gp_renesas_isr_context
    r_gpt.o(.ARM.exidx.text.r_gpt_enable_irq) refers to r_gpt.o(.text.r_gpt_enable_irq) for [Anonymous Symbol]
    r_gpt.o(.rodata.g_timer_on_gpt) refers to r_gpt.o(.text.R_GPT_Open) for R_GPT_Open
    r_gpt.o(.rodata.g_timer_on_gpt) refers to r_gpt.o(.text.R_GPT_Start) for R_GPT_Start
    r_gpt.o(.rodata.g_timer_on_gpt) refers to r_gpt.o(.text.R_GPT_Stop) for R_GPT_Stop
    r_gpt.o(.rodata.g_timer_on_gpt) refers to r_gpt.o(.text.R_GPT_Reset) for R_GPT_Reset
    r_gpt.o(.rodata.g_timer_on_gpt) refers to r_gpt.o(.text.R_GPT_Enable) for R_GPT_Enable
    r_gpt.o(.rodata.g_timer_on_gpt) refers to r_gpt.o(.text.R_GPT_Disable) for R_GPT_Disable
    r_gpt.o(.rodata.g_timer_on_gpt) refers to r_gpt.o(.text.R_GPT_PeriodSet) for R_GPT_PeriodSet
    r_gpt.o(.rodata.g_timer_on_gpt) refers to r_gpt.o(.text.R_GPT_DutyCycleSet) for R_GPT_DutyCycleSet
    r_gpt.o(.rodata.g_timer_on_gpt) refers to r_gpt.o(.text.R_GPT_CompareMatchSet) for R_GPT_CompareMatchSet
    r_gpt.o(.rodata.g_timer_on_gpt) refers to r_gpt.o(.text.R_GPT_InfoGet) for R_GPT_InfoGet
    r_gpt.o(.rodata.g_timer_on_gpt) refers to r_gpt.o(.text.R_GPT_StatusGet) for R_GPT_StatusGet
    r_gpt.o(.rodata.g_timer_on_gpt) refers to r_gpt.o(.text.R_GPT_CallbackSet) for R_GPT_CallbackSet
    r_gpt.o(.rodata.g_timer_on_gpt) refers to r_gpt.o(.text.R_GPT_Close) for R_GPT_Close
    r_iic_master.o(.text.R_IIC_MASTER_Open) refers to r_iic_master.o(.text.iic_master_open_hw_master) for iic_master_open_hw_master
    r_iic_master.o(.ARM.exidx.text.R_IIC_MASTER_Open) refers to r_iic_master.o(.text.R_IIC_MASTER_Open) for [Anonymous Symbol]
    r_iic_master.o(.text.R_IIC_MASTER_Read) refers to r_iic_master.o(.text.iic_master_read_write) for iic_master_read_write
    r_iic_master.o(.ARM.exidx.text.R_IIC_MASTER_Read) refers to r_iic_master.o(.text.R_IIC_MASTER_Read) for [Anonymous Symbol]
    r_iic_master.o(.text.R_IIC_MASTER_Write) refers to r_iic_master.o(.text.iic_master_read_write) for iic_master_read_write
    r_iic_master.o(.ARM.exidx.text.R_IIC_MASTER_Write) refers to r_iic_master.o(.text.R_IIC_MASTER_Write) for [Anonymous Symbol]
    r_iic_master.o(.text.R_IIC_MASTER_Abort) refers to r_iic_master.o(.text.iic_master_open_hw_master) for iic_master_open_hw_master
    r_iic_master.o(.ARM.exidx.text.R_IIC_MASTER_Abort) refers to r_iic_master.o(.text.R_IIC_MASTER_Abort) for [Anonymous Symbol]
    r_iic_master.o(.ARM.exidx.text.R_IIC_MASTER_SlaveAddressSet) refers to r_iic_master.o(.text.R_IIC_MASTER_SlaveAddressSet) for [Anonymous Symbol]
    r_iic_master.o(.ARM.exidx.text.R_IIC_MASTER_CallbackSet) refers to r_iic_master.o(.text.R_IIC_MASTER_CallbackSet) for [Anonymous Symbol]
    r_iic_master.o(.ARM.exidx.text.R_IIC_MASTER_StatusGet) refers to r_iic_master.o(.text.R_IIC_MASTER_StatusGet) for [Anonymous Symbol]
    r_iic_master.o(.text.R_IIC_MASTER_Close) refers to r_iic_master.o(.text.iic_master_open_hw_master) for iic_master_open_hw_master
    r_iic_master.o(.ARM.exidx.text.R_IIC_MASTER_Close) refers to r_iic_master.o(.text.R_IIC_MASTER_Close) for [Anonymous Symbol]
    r_iic_master.o(.text.iic_master_open_hw_master) refers to bsp_irq.o(.bss.gp_renesas_isr_context) for gp_renesas_isr_context
    r_iic_master.o(.ARM.exidx.text.iic_master_open_hw_master) refers to r_iic_master.o(.text.iic_master_open_hw_master) for [Anonymous Symbol]
    r_iic_master.o(.ARM.exidx.text.iic_master_read_write) refers to r_iic_master.o(.text.iic_master_read_write) for [Anonymous Symbol]
    r_iic_master.o(.text.iic_master_rxi_isr) refers to bsp_irq.o(.bss.gp_renesas_isr_context) for gp_renesas_isr_context
    r_iic_master.o(.text.iic_master_rxi_isr) refers to r_iic_master.o(.text.iic_master_notify) for iic_master_notify
    r_iic_master.o(.ARM.exidx.text.iic_master_rxi_isr) refers to r_iic_master.o(.text.iic_master_rxi_isr) for [Anonymous Symbol]
    r_iic_master.o(.text.iic_master_txi_isr) refers to bsp_irq.o(.bss.gp_renesas_isr_context) for gp_renesas_isr_context
    r_iic_master.o(.text.iic_master_txi_isr) refers to r_iic_master.o(.text.iic_master_notify) for iic_master_notify
    r_iic_master.o(.ARM.exidx.text.iic_master_txi_isr) refers to r_iic_master.o(.text.iic_master_txi_isr) for [Anonymous Symbol]
    r_iic_master.o(.text.iic_master_tei_isr) refers to bsp_irq.o(.bss.gp_renesas_isr_context) for gp_renesas_isr_context
    r_iic_master.o(.text.iic_master_tei_isr) refers to r_iic_master.o(.text.iic_master_notify) for iic_master_notify
    r_iic_master.o(.ARM.exidx.text.iic_master_tei_isr) refers to r_iic_master.o(.text.iic_master_tei_isr) for [Anonymous Symbol]
    r_iic_master.o(.text.iic_master_eri_isr) refers to bsp_irq.o(.bss.gp_renesas_isr_context) for gp_renesas_isr_context
    r_iic_master.o(.text.iic_master_eri_isr) refers to r_iic_master.o(.text.iic_master_open_hw_master) for iic_master_open_hw_master
    r_iic_master.o(.text.iic_master_eri_isr) refers to r_iic_master.o(.text.iic_master_notify) for iic_master_notify
    r_iic_master.o(.ARM.exidx.text.iic_master_eri_isr) refers to r_iic_master.o(.text.iic_master_eri_isr) for [Anonymous Symbol]
    r_iic_master.o(.ARM.exidx.text.iic_master_notify) refers to r_iic_master.o(.text.iic_master_notify) for [Anonymous Symbol]
    r_iic_master.o(.rodata.g_i2c_master_on_iic) refers to r_iic_master.o(.text.R_IIC_MASTER_Open) for R_IIC_MASTER_Open
    r_iic_master.o(.rodata.g_i2c_master_on_iic) refers to r_iic_master.o(.text.R_IIC_MASTER_Read) for R_IIC_MASTER_Read
    r_iic_master.o(.rodata.g_i2c_master_on_iic) refers to r_iic_master.o(.text.R_IIC_MASTER_Write) for R_IIC_MASTER_Write
    r_iic_master.o(.rodata.g_i2c_master_on_iic) refers to r_iic_master.o(.text.R_IIC_MASTER_Abort) for R_IIC_MASTER_Abort
    r_iic_master.o(.rodata.g_i2c_master_on_iic) refers to r_iic_master.o(.text.R_IIC_MASTER_SlaveAddressSet) for R_IIC_MASTER_SlaveAddressSet
    r_iic_master.o(.rodata.g_i2c_master_on_iic) refers to r_iic_master.o(.text.R_IIC_MASTER_CallbackSet) for R_IIC_MASTER_CallbackSet
    r_iic_master.o(.rodata.g_i2c_master_on_iic) refers to r_iic_master.o(.text.R_IIC_MASTER_StatusGet) for R_IIC_MASTER_StatusGet
    r_iic_master.o(.rodata.g_i2c_master_on_iic) refers to r_iic_master.o(.text.R_IIC_MASTER_Close) for R_IIC_MASTER_Close
    r_ioport.o(.text.R_IOPORT_Open) refers to r_ioport.o(.text.r_ioport_pins_config) for r_ioport_pins_config
    r_ioport.o(.ARM.exidx.text.R_IOPORT_Open) refers to r_ioport.o(.text.R_IOPORT_Open) for [Anonymous Symbol]
    r_ioport.o(.ARM.exidx.text.R_IOPORT_Close) refers to r_ioport.o(.text.R_IOPORT_Close) for [Anonymous Symbol]
    r_ioport.o(.text.R_IOPORT_PinsCfg) refers to r_ioport.o(.text.r_ioport_pins_config) for r_ioport_pins_config
    r_ioport.o(.ARM.exidx.text.R_IOPORT_PinsCfg) refers to r_ioport.o(.text.R_IOPORT_PinsCfg) for [Anonymous Symbol]
    r_ioport.o(.text.R_IOPORT_PinCfg) refers to r_ioport.o(.text.bsp_vbatt_init) for bsp_vbatt_init
    r_ioport.o(.text.R_IOPORT_PinCfg) refers to bsp_io.o(.bss.g_protect_pfswe_counter) for g_protect_pfswe_counter
    r_ioport.o(.ARM.exidx.text.R_IOPORT_PinCfg) refers to r_ioport.o(.text.R_IOPORT_PinCfg) for [Anonymous Symbol]
    r_ioport.o(.ARM.exidx.text.R_IOPORT_PinEventInputRead) refers to r_ioport.o(.text.R_IOPORT_PinEventInputRead) for [Anonymous Symbol]
    r_ioport.o(.ARM.exidx.text.R_IOPORT_PinEventOutputWrite) refers to r_ioport.o(.text.R_IOPORT_PinEventOutputWrite) for [Anonymous Symbol]
    r_ioport.o(.ARM.exidx.text.R_IOPORT_PinRead) refers to r_ioport.o(.text.R_IOPORT_PinRead) for [Anonymous Symbol]
    r_ioport.o(.ARM.exidx.text.R_IOPORT_PinWrite) refers to r_ioport.o(.text.R_IOPORT_PinWrite) for [Anonymous Symbol]
    r_ioport.o(.ARM.exidx.text.R_IOPORT_PortDirectionSet) refers to r_ioport.o(.text.R_IOPORT_PortDirectionSet) for [Anonymous Symbol]
    r_ioport.o(.ARM.exidx.text.R_IOPORT_PortEventInputRead) refers to r_ioport.o(.text.R_IOPORT_PortEventInputRead) for [Anonymous Symbol]
    r_ioport.o(.ARM.exidx.text.R_IOPORT_PortEventOutputWrite) refers to r_ioport.o(.text.R_IOPORT_PortEventOutputWrite) for [Anonymous Symbol]
    r_ioport.o(.ARM.exidx.text.R_IOPORT_PortRead) refers to r_ioport.o(.text.R_IOPORT_PortRead) for [Anonymous Symbol]
    r_ioport.o(.ARM.exidx.text.R_IOPORT_PortWrite) refers to r_ioport.o(.text.R_IOPORT_PortWrite) for [Anonymous Symbol]
    r_ioport.o(.text.r_ioport_pins_config) refers to r_ioport.o(.text.bsp_vbatt_init) for bsp_vbatt_init
    r_ioport.o(.text.r_ioport_pins_config) refers to bsp_io.o(.bss.g_protect_pfswe_counter) for g_protect_pfswe_counter
    r_ioport.o(.ARM.exidx.text.r_ioport_pins_config) refers to r_ioport.o(.text.r_ioport_pins_config) for [Anonymous Symbol]
    r_ioport.o(.text.bsp_vbatt_init) refers to bsp_register_protection.o(.text.R_BSP_RegisterProtectDisable) for R_BSP_RegisterProtectDisable
    r_ioport.o(.text.bsp_vbatt_init) refers to bsp_register_protection.o(.text.R_BSP_RegisterProtectEnable) for R_BSP_RegisterProtectEnable
    r_ioport.o(.text.bsp_vbatt_init) refers to bsp_delay.o(.text.R_BSP_SoftwareDelay) for R_BSP_SoftwareDelay
    r_ioport.o(.ARM.exidx.text.bsp_vbatt_init) refers to r_ioport.o(.text.bsp_vbatt_init) for [Anonymous Symbol]
    r_ioport.o(.rodata.g_ioport_on_ioport) refers to r_ioport.o(.text.R_IOPORT_Open) for R_IOPORT_Open
    r_ioport.o(.rodata.g_ioport_on_ioport) refers to r_ioport.o(.text.R_IOPORT_Close) for R_IOPORT_Close
    r_ioport.o(.rodata.g_ioport_on_ioport) refers to r_ioport.o(.text.R_IOPORT_PinsCfg) for R_IOPORT_PinsCfg
    r_ioport.o(.rodata.g_ioport_on_ioport) refers to r_ioport.o(.text.R_IOPORT_PinCfg) for R_IOPORT_PinCfg
    r_ioport.o(.rodata.g_ioport_on_ioport) refers to r_ioport.o(.text.R_IOPORT_PinEventInputRead) for R_IOPORT_PinEventInputRead
    r_ioport.o(.rodata.g_ioport_on_ioport) refers to r_ioport.o(.text.R_IOPORT_PinEventOutputWrite) for R_IOPORT_PinEventOutputWrite
    r_ioport.o(.rodata.g_ioport_on_ioport) refers to r_ioport.o(.text.R_IOPORT_PinRead) for R_IOPORT_PinRead
    r_ioport.o(.rodata.g_ioport_on_ioport) refers to r_ioport.o(.text.R_IOPORT_PinWrite) for R_IOPORT_PinWrite
    r_ioport.o(.rodata.g_ioport_on_ioport) refers to r_ioport.o(.text.R_IOPORT_PortDirectionSet) for R_IOPORT_PortDirectionSet
    r_ioport.o(.rodata.g_ioport_on_ioport) refers to r_ioport.o(.text.R_IOPORT_PortEventInputRead) for R_IOPORT_PortEventInputRead
    r_ioport.o(.rodata.g_ioport_on_ioport) refers to r_ioport.o(.text.R_IOPORT_PortEventOutputWrite) for R_IOPORT_PortEventOutputWrite
    r_ioport.o(.rodata.g_ioport_on_ioport) refers to r_ioport.o(.text.R_IOPORT_PortRead) for R_IOPORT_PortRead
    r_ioport.o(.rodata.g_ioport_on_ioport) refers to r_ioport.o(.text.R_IOPORT_PortWrite) for R_IOPORT_PortWrite
    r_sci_uart.o(.text.R_SCI_UART_Open) refers to bsp_irq.o(.bss.gp_renesas_isr_context) for gp_renesas_isr_context
    r_sci_uart.o(.ARM.exidx.text.R_SCI_UART_Open) refers to r_sci_uart.o(.text.R_SCI_UART_Open) for [Anonymous Symbol]
    r_sci_uart.o(.ARM.exidx.text.R_SCI_UART_Read) refers to r_sci_uart.o(.text.R_SCI_UART_Read) for [Anonymous Symbol]
    r_sci_uart.o(.ARM.exidx.text.R_SCI_UART_Write) refers to r_sci_uart.o(.text.R_SCI_UART_Write) for [Anonymous Symbol]
    r_sci_uart.o(.ARM.exidx.text.R_SCI_UART_BaudSet) refers to r_sci_uart.o(.text.R_SCI_UART_BaudSet) for [Anonymous Symbol]
    r_sci_uart.o(.ARM.exidx.text.R_SCI_UART_InfoGet) refers to r_sci_uart.o(.text.R_SCI_UART_InfoGet) for [Anonymous Symbol]
    r_sci_uart.o(.ARM.exidx.text.R_SCI_UART_Abort) refers to r_sci_uart.o(.text.R_SCI_UART_Abort) for [Anonymous Symbol]
    r_sci_uart.o(.ARM.exidx.text.R_SCI_UART_CallbackSet) refers to r_sci_uart.o(.text.R_SCI_UART_CallbackSet) for [Anonymous Symbol]
    r_sci_uart.o(.ARM.exidx.text.R_SCI_UART_Close) refers to r_sci_uart.o(.text.R_SCI_UART_Close) for [Anonymous Symbol]
    r_sci_uart.o(.ARM.exidx.text.R_SCI_UART_ReadStop) refers to r_sci_uart.o(.text.R_SCI_UART_ReadStop) for [Anonymous Symbol]
    r_sci_uart.o(.text.R_SCI_UART_BaudCalculate) refers to system.o(.bss.SystemCoreClock) for SystemCoreClock
    r_sci_uart.o(.text.R_SCI_UART_BaudCalculate) refers to r_sci_uart.o(.rodata.g_async_baud) for g_async_baud
    r_sci_uart.o(.text.R_SCI_UART_BaudCalculate) refers to r_sci_uart.o(.rodata.g_div_coefficient) for g_div_coefficient
    r_sci_uart.o(.text.R_SCI_UART_BaudCalculate) refers to ldiv.o(.text) for __aeabi_ldivmod
    r_sci_uart.o(.ARM.exidx.text.R_SCI_UART_BaudCalculate) refers to r_sci_uart.o(.text.R_SCI_UART_BaudCalculate) for [Anonymous Symbol]
    r_sci_uart.o(.text.sci_uart_txi_isr) refers to bsp_irq.o(.bss.gp_renesas_isr_context) for gp_renesas_isr_context
    r_sci_uart.o(.text.sci_uart_txi_isr) refers to r_sci_uart.o(.text.r_sci_uart_call_callback) for r_sci_uart_call_callback
    r_sci_uart.o(.ARM.exidx.text.sci_uart_txi_isr) refers to r_sci_uart.o(.text.sci_uart_txi_isr) for [Anonymous Symbol]
    r_sci_uart.o(.ARM.exidx.text.r_sci_uart_call_callback) refers to r_sci_uart.o(.text.r_sci_uart_call_callback) for [Anonymous Symbol]
    r_sci_uart.o(.text.sci_uart_rxi_isr) refers to bsp_irq.o(.bss.gp_renesas_isr_context) for gp_renesas_isr_context
    r_sci_uart.o(.text.sci_uart_rxi_isr) refers to memcpya.o(.text) for __aeabi_memcpy
    r_sci_uart.o(.text.sci_uart_rxi_isr) refers to r_sci_uart.o(.text.r_sci_uart_call_callback) for r_sci_uart_call_callback
    r_sci_uart.o(.ARM.exidx.text.sci_uart_rxi_isr) refers to r_sci_uart.o(.text.sci_uart_rxi_isr) for [Anonymous Symbol]
    r_sci_uart.o(.text.sci_uart_tei_isr) refers to bsp_irq.o(.bss.gp_renesas_isr_context) for gp_renesas_isr_context
    r_sci_uart.o(.text.sci_uart_tei_isr) refers to r_sci_uart.o(.text.r_sci_uart_call_callback) for r_sci_uart_call_callback
    r_sci_uart.o(.ARM.exidx.text.sci_uart_tei_isr) refers to r_sci_uart.o(.text.sci_uart_tei_isr) for [Anonymous Symbol]
    r_sci_uart.o(.text.sci_uart_eri_isr) refers to bsp_irq.o(.bss.gp_renesas_isr_context) for gp_renesas_isr_context
    r_sci_uart.o(.text.sci_uart_eri_isr) refers to r_sci_uart.o(.text.r_sci_uart_call_callback) for r_sci_uart_call_callback
    r_sci_uart.o(.ARM.exidx.text.sci_uart_eri_isr) refers to r_sci_uart.o(.text.sci_uart_eri_isr) for [Anonymous Symbol]
    r_sci_uart.o(.rodata.g_uart_on_sci) refers to r_sci_uart.o(.text.R_SCI_UART_Open) for R_SCI_UART_Open
    r_sci_uart.o(.rodata.g_uart_on_sci) refers to r_sci_uart.o(.text.R_SCI_UART_Read) for R_SCI_UART_Read
    r_sci_uart.o(.rodata.g_uart_on_sci) refers to r_sci_uart.o(.text.R_SCI_UART_Write) for R_SCI_UART_Write
    r_sci_uart.o(.rodata.g_uart_on_sci) refers to r_sci_uart.o(.text.R_SCI_UART_BaudSet) for R_SCI_UART_BaudSet
    r_sci_uart.o(.rodata.g_uart_on_sci) refers to r_sci_uart.o(.text.R_SCI_UART_InfoGet) for R_SCI_UART_InfoGet
    r_sci_uart.o(.rodata.g_uart_on_sci) refers to r_sci_uart.o(.text.R_SCI_UART_Abort) for R_SCI_UART_Abort
    r_sci_uart.o(.rodata.g_uart_on_sci) refers to r_sci_uart.o(.text.R_SCI_UART_CallbackSet) for R_SCI_UART_CallbackSet
    r_sci_uart.o(.rodata.g_uart_on_sci) refers to r_sci_uart.o(.text.R_SCI_UART_Close) for R_SCI_UART_Close
    r_sci_uart.o(.rodata.g_uart_on_sci) refers to r_sci_uart.o(.text.R_SCI_UART_ReadStop) for R_SCI_UART_ReadStop
    common_data.o(.ARM.exidx.text.g_common_init) refers to common_data.o(.text.g_common_init) for [Anonymous Symbol]
    common_data.o(.rodata.g_ioport) refers to common_data.o(.bss.g_ioport_ctrl) for g_ioport_ctrl
    common_data.o(.rodata.g_ioport) refers to pin_data.o(.rodata.g_bsp_pin_cfg) for g_bsp_pin_cfg
    common_data.o(.rodata.g_ioport) refers to r_ioport.o(.rodata.g_ioport_on_ioport) for g_ioport_on_ioport
    hal_data.o(.text.g_hal_init) refers to common_data.o(.text.g_common_init) for g_common_init
    hal_data.o(.ARM.exidx.text.g_hal_init) refers to hal_data.o(.text.g_hal_init) for [Anonymous Symbol]
    hal_data.o(.rodata.g_timer2_cfg) refers to hal_data.o(.rodata.g_timer2_extend) for g_timer2_extend
    hal_data.o(.rodata.g_timer2) refers to hal_data.o(.bss.g_timer2_ctrl) for g_timer2_ctrl
    hal_data.o(.rodata.g_timer2) refers to hal_data.o(.rodata.g_timer2_cfg) for g_timer2_cfg
    hal_data.o(.rodata.g_timer2) refers to r_gpt.o(.rodata.g_timer_on_gpt) for g_timer_on_gpt
    hal_data.o(.rodata.g_timer1_cfg) refers to hal_data.o(.rodata.g_timer1_extend) for g_timer1_extend
    hal_data.o(.rodata.g_timer1) refers to hal_data.o(.bss.g_timer1_ctrl) for g_timer1_ctrl
    hal_data.o(.rodata.g_timer1) refers to hal_data.o(.rodata.g_timer1_cfg) for g_timer1_cfg
    hal_data.o(.rodata.g_timer1) refers to r_gpt.o(.rodata.g_timer_on_gpt) for g_timer_on_gpt
    hal_data.o(.rodata.g_uart9_cfg_extend) refers to hal_data.o(.data.g_uart9_baud_setting) for g_uart9_baud_setting
    hal_data.o(.rodata.g_uart9_cfg) refers to asr_pro.o(.text.uart9_callback) for uart9_callback
    hal_data.o(.rodata.g_uart9_cfg) refers to hal_data.o(.rodata.g_uart9_cfg_extend) for g_uart9_cfg_extend
    hal_data.o(.rodata.g_uart9) refers to hal_data.o(.bss.g_uart9_ctrl) for g_uart9_ctrl
    hal_data.o(.rodata.g_uart9) refers to hal_data.o(.rodata.g_uart9_cfg) for g_uart9_cfg
    hal_data.o(.rodata.g_uart9) refers to r_sci_uart.o(.rodata.g_uart_on_sci) for g_uart_on_sci
    hal_data.o(.rodata.g_uart8_cfg_extend) refers to hal_data.o(.data.g_uart8_baud_setting) for g_uart8_baud_setting
    hal_data.o(.rodata.g_uart8_cfg) refers to k230_connect.o(.text.uart8_callback) for uart8_callback
    hal_data.o(.rodata.g_uart8_cfg) refers to hal_data.o(.rodata.g_uart8_cfg_extend) for g_uart8_cfg_extend
    hal_data.o(.rodata.g_uart8) refers to hal_data.o(.bss.g_uart8_ctrl) for g_uart8_ctrl
    hal_data.o(.rodata.g_uart8) refers to hal_data.o(.rodata.g_uart8_cfg) for g_uart8_cfg
    hal_data.o(.rodata.g_uart8) refers to r_sci_uart.o(.rodata.g_uart_on_sci) for g_uart_on_sci
    hal_data.o(.rodata.g_uart2_cfg_extend) refers to hal_data.o(.data.g_uart2_baud_setting) for g_uart2_baud_setting
    hal_data.o(.rodata.g_uart2_cfg) refers to esp_connect.o(.text.uart2_callback) for uart2_callback
    hal_data.o(.rodata.g_uart2_cfg) refers to hal_data.o(.rodata.g_uart2_cfg_extend) for g_uart2_cfg_extend
    hal_data.o(.rodata.g_uart2) refers to hal_data.o(.bss.g_uart2_ctrl) for g_uart2_ctrl
    hal_data.o(.rodata.g_uart2) refers to hal_data.o(.rodata.g_uart2_cfg) for g_uart2_cfg
    hal_data.o(.rodata.g_uart2) refers to r_sci_uart.o(.rodata.g_uart_on_sci) for g_uart_on_sci
    hal_data.o(.rodata.g_uart7_cfg_extend) refers to hal_data.o(.data.g_uart7_baud_setting) for g_uart7_baud_setting
    hal_data.o(.rodata.g_uart7_cfg) refers to fun.o(.text.uart7_callback) for uart7_callback
    hal_data.o(.rodata.g_uart7_cfg) refers to hal_data.o(.rodata.g_uart7_cfg_extend) for g_uart7_cfg_extend
    hal_data.o(.rodata.g_uart7) refers to hal_data.o(.bss.g_uart7_ctrl) for g_uart7_ctrl
    hal_data.o(.rodata.g_uart7) refers to hal_data.o(.rodata.g_uart7_cfg) for g_uart7_cfg
    hal_data.o(.rodata.g_uart7) refers to r_sci_uart.o(.rodata.g_uart_on_sci) for g_uart_on_sci
    hal_data.o(.rodata.g_timer_1ms_cfg) refers to fun.o(.text.timer_1ms_callback) for timer_1ms_callback
    hal_data.o(.rodata.g_timer_1ms_cfg) refers to hal_data.o(.rodata.g_timer_1ms_extend) for g_timer_1ms_extend
    hal_data.o(.rodata.g_timer_1ms) refers to hal_data.o(.bss.g_timer_1ms_ctrl) for g_timer_1ms_ctrl
    hal_data.o(.rodata.g_timer_1ms) refers to hal_data.o(.rodata.g_timer_1ms_cfg) for g_timer_1ms_cfg
    hal_data.o(.rodata.g_timer_1ms) refers to r_gpt.o(.rodata.g_timer_on_gpt) for g_timer_on_gpt
    hal_data.o(.rodata.g_uart3_cfg_extend) refers to hal_data.o(.data.g_uart3_baud_setting) for g_uart3_baud_setting
    hal_data.o(.rodata.g_uart3_cfg) refers to as608pro.o(.text.uart3_callback) for uart3_callback
    hal_data.o(.rodata.g_uart3_cfg) refers to hal_data.o(.rodata.g_uart3_cfg_extend) for g_uart3_cfg_extend
    hal_data.o(.rodata.g_uart3) refers to hal_data.o(.bss.g_uart3_ctrl) for g_uart3_ctrl
    hal_data.o(.rodata.g_uart3) refers to hal_data.o(.rodata.g_uart3_cfg) for g_uart3_cfg
    hal_data.o(.rodata.g_uart3) refers to r_sci_uart.o(.rodata.g_uart_on_sci) for g_uart_on_sci
    hal_data.o(.rodata.g_uart5_cfg_extend) refers to hal_data.o(.data.g_uart5_baud_setting) for g_uart5_baud_setting
    hal_data.o(.rodata.g_uart5_cfg) refers to tjc_usart_hmi.o(.text.uart5_callback) for uart5_callback
    hal_data.o(.rodata.g_uart5_cfg) refers to hal_data.o(.rodata.g_uart5_cfg_extend) for g_uart5_cfg_extend
    hal_data.o(.rodata.g_uart5) refers to hal_data.o(.bss.g_uart5_ctrl) for g_uart5_ctrl
    hal_data.o(.rodata.g_uart5) refers to hal_data.o(.rodata.g_uart5_cfg) for g_uart5_cfg
    hal_data.o(.rodata.g_uart5) refers to r_sci_uart.o(.rodata.g_uart_on_sci) for g_uart_on_sci
    hal_data.o(.rodata.g_i2c1_cfg) refers to pn532_hal.o(.text.i2c_master_callback) for i2c_master_callback
    hal_data.o(.rodata.g_i2c1_cfg) refers to hal_data.o(.rodata.g_i2c1_extend) for g_i2c1_extend
    hal_data.o(.rodata.g_i2c1) refers to hal_data.o(.bss.g_i2c1_ctrl) for g_i2c1_ctrl
    hal_data.o(.rodata.g_i2c1) refers to hal_data.o(.rodata.g_i2c1_cfg) for g_i2c1_cfg
    hal_data.o(.rodata.g_i2c1) refers to r_iic_master.o(.rodata.g_i2c_master_on_iic) for g_i2c_master_on_iic
    main.o(.text.main) refers to hal_entry.o(.text.hal_entry) for hal_entry
    main.o(.ARM.exidx.text.main) refers to main.o(.text.main) for [Anonymous Symbol]
    pin_data.o(.rodata.g_bsp_pin_cfg) refers to pin_data.o(.rodata.g_bsp_pin_cfg_data) for g_bsp_pin_cfg_data
    vector_data.o(.application_vectors) refers to r_iic_master.o(.text.iic_master_rxi_isr) for iic_master_rxi_isr
    vector_data.o(.application_vectors) refers to r_iic_master.o(.text.iic_master_txi_isr) for iic_master_txi_isr
    vector_data.o(.application_vectors) refers to r_iic_master.o(.text.iic_master_tei_isr) for iic_master_tei_isr
    vector_data.o(.application_vectors) refers to r_iic_master.o(.text.iic_master_eri_isr) for iic_master_eri_isr
    vector_data.o(.application_vectors) refers to r_sci_uart.o(.text.sci_uart_rxi_isr) for sci_uart_rxi_isr
    vector_data.o(.application_vectors) refers to r_sci_uart.o(.text.sci_uart_txi_isr) for sci_uart_txi_isr
    vector_data.o(.application_vectors) refers to r_sci_uart.o(.text.sci_uart_tei_isr) for sci_uart_tei_isr
    vector_data.o(.application_vectors) refers to r_sci_uart.o(.text.sci_uart_eri_isr) for sci_uart_eri_isr
    vector_data.o(.application_vectors) refers to r_gpt.o(.text.gpt_counter_overflow_isr) for gpt_counter_overflow_isr
    puts.o(i.puts) refers to fun.o(.text.fputc) for fputc
    puts.o(i.puts) refers to stdout.o(.data) for __stdout
    puts_e.o(.text) refers to fun.o(.text.fputc) for fputc
    puts_e.o(.text) refers to stdout.o(.data) for __stdout
    ldiv.o(.text) refers to uldiv.o(.text) for __aeabi_uldivmod
    printfb.o(i.__0fprintf$bare) refers to printfb.o(i._printf_core) for _printf_core
    printfb.o(i.__0fprintf$bare) refers to fun.o(.text.fputc) for fputc
    printfb.o(i.__0printf$bare) refers to printfb.o(i._printf_core) for _printf_core
    printfb.o(i.__0printf$bare) refers to fun.o(.text.fputc) for fputc
    printfb.o(i.__0printf$bare) refers to stdout.o(.data) for __stdout
    printfb.o(i.__0snprintf$bare) refers to printfb.o(i._printf_core) for _printf_core
    printfb.o(i.__0snprintf$bare) refers to printfb.o(i._snputc) for _snputc
    printfb.o(i.__0sprintf$bare) refers to printfb.o(i._printf_core) for _printf_core
    printfb.o(i.__0sprintf$bare) refers to printfb.o(i._sputc) for _sputc
    printfb.o(i.__0vfprintf$bare) refers to printfb.o(i._printf_core) for _printf_core
    printfb.o(i.__0vfprintf$bare) refers to fun.o(.text.fputc) for fputc
    printfb.o(i.__0vprintf$bare) refers to printfb.o(i._printf_core) for _printf_core
    printfb.o(i.__0vprintf$bare) refers to fun.o(.text.fputc) for fputc
    printfb.o(i.__0vprintf$bare) refers to stdout.o(.data) for __stdout
    printfb.o(i.__0vsnprintf$bare) refers to printfb.o(i._printf_core) for _printf_core
    printfb.o(i.__0vsnprintf$bare) refers to printfb.o(i._snputc) for _snputc
    printfb.o(i.__0vsprintf$bare) refers to printfb.o(i._printf_core) for _printf_core
    printfb.o(i.__0vsprintf$bare) refers to printfb.o(i._sputc) for _sputc
    printf0.o(i.__0fprintf$0) refers to printf0.o(i._printf_core) for _printf_core
    printf0.o(i.__0fprintf$0) refers to fun.o(.text.fputc) for fputc
    printf0.o(i.__0printf$0) refers to printf0.o(i._printf_core) for _printf_core
    printf0.o(i.__0printf$0) refers to fun.o(.text.fputc) for fputc
    printf0.o(i.__0printf$0) refers to stdout.o(.data) for __stdout
    printf0.o(i.__0snprintf$0) refers to printf0.o(i._printf_core) for _printf_core
    printf0.o(i.__0snprintf$0) refers to printf0.o(i._snputc) for _snputc
    printf0.o(i.__0sprintf$0) refers to printf0.o(i._printf_core) for _printf_core
    printf0.o(i.__0sprintf$0) refers to printf0.o(i._sputc) for _sputc
    printf0.o(i.__0vfprintf$0) refers to printf0.o(i._printf_core) for _printf_core
    printf0.o(i.__0vfprintf$0) refers to fun.o(.text.fputc) for fputc
    printf0.o(i.__0vprintf$0) refers to printf0.o(i._printf_core) for _printf_core
    printf0.o(i.__0vprintf$0) refers to fun.o(.text.fputc) for fputc
    printf0.o(i.__0vprintf$0) refers to stdout.o(.data) for __stdout
    printf0.o(i.__0vsnprintf$0) refers to printf0.o(i._printf_core) for _printf_core
    printf0.o(i.__0vsnprintf$0) refers to printf0.o(i._snputc) for _snputc
    printf0.o(i.__0vsprintf$0) refers to printf0.o(i._printf_core) for _printf_core
    printf0.o(i.__0vsprintf$0) refers to printf0.o(i._sputc) for _sputc
    printf1.o(i.__0fprintf$1) refers to printf1.o(i._printf_core) for _printf_core
    printf1.o(i.__0fprintf$1) refers to fun.o(.text.fputc) for fputc
    printf1.o(i.__0printf$1) refers to printf1.o(i._printf_core) for _printf_core
    printf1.o(i.__0printf$1) refers to fun.o(.text.fputc) for fputc
    printf1.o(i.__0printf$1) refers to stdout.o(.data) for __stdout
    printf1.o(i.__0snprintf$1) refers to printf1.o(i._printf_core) for _printf_core
    printf1.o(i.__0snprintf$1) refers to printf1.o(i._snputc) for _snputc
    printf1.o(i.__0sprintf$1) refers to printf1.o(i._printf_core) for _printf_core
    printf1.o(i.__0sprintf$1) refers to printf1.o(i._sputc) for _sputc
    printf1.o(i.__0vfprintf$1) refers to printf1.o(i._printf_core) for _printf_core
    printf1.o(i.__0vfprintf$1) refers to fun.o(.text.fputc) for fputc
    printf1.o(i.__0vprintf$1) refers to printf1.o(i._printf_core) for _printf_core
    printf1.o(i.__0vprintf$1) refers to fun.o(.text.fputc) for fputc
    printf1.o(i.__0vprintf$1) refers to stdout.o(.data) for __stdout
    printf1.o(i.__0vsnprintf$1) refers to printf1.o(i._printf_core) for _printf_core
    printf1.o(i.__0vsnprintf$1) refers to printf1.o(i._snputc) for _snputc
    printf1.o(i.__0vsprintf$1) refers to printf1.o(i._printf_core) for _printf_core
    printf1.o(i.__0vsprintf$1) refers to printf1.o(i._sputc) for _sputc
    printf1.o(i._printf_core) refers to uidiv.o(.text) for __aeabi_uidivmod
    printf2.o(i.__0fprintf$2) refers to printf2.o(i._printf_core) for _printf_core
    printf2.o(i.__0fprintf$2) refers to fun.o(.text.fputc) for fputc
    printf2.o(i.__0printf$2) refers to printf2.o(i._printf_core) for _printf_core
    printf2.o(i.__0printf$2) refers to fun.o(.text.fputc) for fputc
    printf2.o(i.__0printf$2) refers to stdout.o(.data) for __stdout
    printf2.o(i.__0snprintf$2) refers to printf2.o(i._printf_core) for _printf_core
    printf2.o(i.__0snprintf$2) refers to printf2.o(i._snputc) for _snputc
    printf2.o(i.__0sprintf$2) refers to printf2.o(i._printf_core) for _printf_core
    printf2.o(i.__0sprintf$2) refers to printf2.o(i._sputc) for _sputc
    printf2.o(i.__0vfprintf$2) refers to printf2.o(i._printf_core) for _printf_core
    printf2.o(i.__0vfprintf$2) refers to fun.o(.text.fputc) for fputc
    printf2.o(i.__0vprintf$2) refers to printf2.o(i._printf_core) for _printf_core
    printf2.o(i.__0vprintf$2) refers to fun.o(.text.fputc) for fputc
    printf2.o(i.__0vprintf$2) refers to stdout.o(.data) for __stdout
    printf2.o(i.__0vsnprintf$2) refers to printf2.o(i._printf_core) for _printf_core
    printf2.o(i.__0vsnprintf$2) refers to printf2.o(i._snputc) for _snputc
    printf2.o(i.__0vsprintf$2) refers to printf2.o(i._printf_core) for _printf_core
    printf2.o(i.__0vsprintf$2) refers to printf2.o(i._sputc) for _sputc
    printf3.o(i.__0fprintf$3) refers to printf3.o(i._printf_core) for _printf_core
    printf3.o(i.__0fprintf$3) refers to fun.o(.text.fputc) for fputc
    printf3.o(i.__0printf$3) refers to printf3.o(i._printf_core) for _printf_core
    printf3.o(i.__0printf$3) refers to fun.o(.text.fputc) for fputc
    printf3.o(i.__0printf$3) refers to stdout.o(.data) for __stdout
    printf3.o(i.__0snprintf$3) refers to printf3.o(i._printf_core) for _printf_core
    printf3.o(i.__0snprintf$3) refers to printf3.o(i._snputc) for _snputc
    printf3.o(i.__0sprintf$3) refers to printf3.o(i._printf_core) for _printf_core
    printf3.o(i.__0sprintf$3) refers to printf3.o(i._sputc) for _sputc
    printf3.o(i.__0vfprintf$3) refers to printf3.o(i._printf_core) for _printf_core
    printf3.o(i.__0vfprintf$3) refers to fun.o(.text.fputc) for fputc
    printf3.o(i.__0vprintf$3) refers to printf3.o(i._printf_core) for _printf_core
    printf3.o(i.__0vprintf$3) refers to fun.o(.text.fputc) for fputc
    printf3.o(i.__0vprintf$3) refers to stdout.o(.data) for __stdout
    printf3.o(i.__0vsnprintf$3) refers to printf3.o(i._printf_core) for _printf_core
    printf3.o(i.__0vsnprintf$3) refers to printf3.o(i._snputc) for _snputc
    printf3.o(i.__0vsprintf$3) refers to printf3.o(i._printf_core) for _printf_core
    printf3.o(i.__0vsprintf$3) refers to printf3.o(i._sputc) for _sputc
    printf3.o(i._printf_core) refers to uidiv.o(.text) for __aeabi_uidivmod
    printf4.o(i.__0fprintf$4) refers to printf4.o(i._printf_core) for _printf_core
    printf4.o(i.__0fprintf$4) refers to fun.o(.text.fputc) for fputc
    printf4.o(i.__0printf$4) refers to printf4.o(i._printf_core) for _printf_core
    printf4.o(i.__0printf$4) refers to fun.o(.text.fputc) for fputc
    printf4.o(i.__0printf$4) refers to stdout.o(.data) for __stdout
    printf4.o(i.__0snprintf$4) refers to printf4.o(i._printf_core) for _printf_core
    printf4.o(i.__0snprintf$4) refers to printf4.o(i._snputc) for _snputc
    printf4.o(i.__0sprintf$4) refers to printf4.o(i._printf_core) for _printf_core
    printf4.o(i.__0sprintf$4) refers to printf4.o(i._sputc) for _sputc
    printf4.o(i.__0vfprintf$4) refers to printf4.o(i._printf_core) for _printf_core
    printf4.o(i.__0vfprintf$4) refers to fun.o(.text.fputc) for fputc
    printf4.o(i.__0vprintf$4) refers to printf4.o(i._printf_core) for _printf_core
    printf4.o(i.__0vprintf$4) refers to fun.o(.text.fputc) for fputc
    printf4.o(i.__0vprintf$4) refers to stdout.o(.data) for __stdout
    printf4.o(i.__0vsnprintf$4) refers to printf4.o(i._printf_core) for _printf_core
    printf4.o(i.__0vsnprintf$4) refers to printf4.o(i._snputc) for _snputc
    printf4.o(i.__0vsprintf$4) refers to printf4.o(i._printf_core) for _printf_core
    printf4.o(i.__0vsprintf$4) refers to printf4.o(i._sputc) for _sputc
    printf4.o(i._printf_core) refers to uldiv.o(.text) for __aeabi_uldivmod
    printf5.o(i.__0fprintf$5) refers to printf5.o(i._printf_core) for _printf_core
    printf5.o(i.__0fprintf$5) refers to fun.o(.text.fputc) for fputc
    printf5.o(i.__0printf$5) refers to printf5.o(i._printf_core) for _printf_core
    printf5.o(i.__0printf$5) refers to fun.o(.text.fputc) for fputc
    printf5.o(i.__0printf$5) refers to stdout.o(.data) for __stdout
    printf5.o(i.__0snprintf$5) refers to printf5.o(i._printf_core) for _printf_core
    printf5.o(i.__0snprintf$5) refers to printf5.o(i._snputc) for _snputc
    printf5.o(i.__0sprintf$5) refers to printf5.o(i._printf_core) for _printf_core
    printf5.o(i.__0sprintf$5) refers to printf5.o(i._sputc) for _sputc
    printf5.o(i.__0vfprintf$5) refers to printf5.o(i._printf_core) for _printf_core
    printf5.o(i.__0vfprintf$5) refers to fun.o(.text.fputc) for fputc
    printf5.o(i.__0vprintf$5) refers to printf5.o(i._printf_core) for _printf_core
    printf5.o(i.__0vprintf$5) refers to fun.o(.text.fputc) for fputc
    printf5.o(i.__0vprintf$5) refers to stdout.o(.data) for __stdout
    printf5.o(i.__0vsnprintf$5) refers to printf5.o(i._printf_core) for _printf_core
    printf5.o(i.__0vsnprintf$5) refers to printf5.o(i._snputc) for _snputc
    printf5.o(i.__0vsprintf$5) refers to printf5.o(i._printf_core) for _printf_core
    printf5.o(i.__0vsprintf$5) refers to printf5.o(i._sputc) for _sputc
    printf5.o(i._printf_core) refers to uldiv.o(.text) for __aeabi_uldivmod
    printf6.o(i.__0fprintf$6) refers to printf6.o(i._printf_core) for _printf_core
    printf6.o(i.__0fprintf$6) refers to fun.o(.text.fputc) for fputc
    printf6.o(i.__0printf$6) refers to printf6.o(i._printf_core) for _printf_core
    printf6.o(i.__0printf$6) refers to fun.o(.text.fputc) for fputc
    printf6.o(i.__0printf$6) refers to stdout.o(.data) for __stdout
    printf6.o(i.__0snprintf$6) refers to printf6.o(i._printf_core) for _printf_core
    printf6.o(i.__0snprintf$6) refers to printf6.o(i._snputc) for _snputc
    printf6.o(i.__0sprintf$6) refers to printf6.o(i._printf_core) for _printf_core
    printf6.o(i.__0sprintf$6) refers to printf6.o(i._sputc) for _sputc
    printf6.o(i.__0vfprintf$6) refers to printf6.o(i._printf_core) for _printf_core
    printf6.o(i.__0vfprintf$6) refers to fun.o(.text.fputc) for fputc
    printf6.o(i.__0vprintf$6) refers to printf6.o(i._printf_core) for _printf_core
    printf6.o(i.__0vprintf$6) refers to fun.o(.text.fputc) for fputc
    printf6.o(i.__0vprintf$6) refers to stdout.o(.data) for __stdout
    printf6.o(i.__0vsnprintf$6) refers to printf6.o(i._printf_core) for _printf_core
    printf6.o(i.__0vsnprintf$6) refers to printf6.o(i._snputc) for _snputc
    printf6.o(i.__0vsprintf$6) refers to printf6.o(i._printf_core) for _printf_core
    printf6.o(i.__0vsprintf$6) refers to printf6.o(i._sputc) for _sputc
    printf6.o(i._printf_core) refers to printf6.o(i._printf_pre_padding) for _printf_pre_padding
    printf6.o(i._printf_core) refers to uidiv.o(.text) for __aeabi_uidivmod
    printf6.o(i._printf_core) refers to printf6.o(i._printf_post_padding) for _printf_post_padding
    printf7.o(i.__0fprintf$7) refers to printf7.o(i._printf_core) for _printf_core
    printf7.o(i.__0fprintf$7) refers to fun.o(.text.fputc) for fputc
    printf7.o(i.__0printf$7) refers to printf7.o(i._printf_core) for _printf_core
    printf7.o(i.__0printf$7) refers to fun.o(.text.fputc) for fputc
    printf7.o(i.__0printf$7) refers to stdout.o(.data) for __stdout
    printf7.o(i.__0snprintf$7) refers to printf7.o(i._printf_core) for _printf_core
    printf7.o(i.__0snprintf$7) refers to printf7.o(i._snputc) for _snputc
    printf7.o(i.__0sprintf$7) refers to printf7.o(i._printf_core) for _printf_core
    printf7.o(i.__0sprintf$7) refers to printf7.o(i._sputc) for _sputc
    printf7.o(i.__0vfprintf$7) refers to printf7.o(i._printf_core) for _printf_core
    printf7.o(i.__0vfprintf$7) refers to fun.o(.text.fputc) for fputc
    printf7.o(i.__0vprintf$7) refers to printf7.o(i._printf_core) for _printf_core
    printf7.o(i.__0vprintf$7) refers to fun.o(.text.fputc) for fputc
    printf7.o(i.__0vprintf$7) refers to stdout.o(.data) for __stdout
    printf7.o(i.__0vsnprintf$7) refers to printf7.o(i._printf_core) for _printf_core
    printf7.o(i.__0vsnprintf$7) refers to printf7.o(i._snputc) for _snputc
    printf7.o(i.__0vsprintf$7) refers to printf7.o(i._printf_core) for _printf_core
    printf7.o(i.__0vsprintf$7) refers to printf7.o(i._sputc) for _sputc
    printf7.o(i._printf_core) refers to printf7.o(i._printf_pre_padding) for _printf_pre_padding
    printf7.o(i._printf_core) refers to uldiv.o(.text) for __aeabi_uldivmod
    printf7.o(i._printf_core) refers to printf7.o(i._printf_post_padding) for _printf_post_padding
    printf8.o(i.__0fprintf$8) refers to printf8.o(i._printf_core) for _printf_core
    printf8.o(i.__0fprintf$8) refers to fun.o(.text.fputc) for fputc
    printf8.o(i.__0printf$8) refers to printf8.o(i._printf_core) for _printf_core
    printf8.o(i.__0printf$8) refers to fun.o(.text.fputc) for fputc
    printf8.o(i.__0printf$8) refers to stdout.o(.data) for __stdout
    printf8.o(i.__0snprintf$8) refers to printf8.o(i._printf_core) for _printf_core
    printf8.o(i.__0snprintf$8) refers to printf8.o(i._snputc) for _snputc
    printf8.o(i.__0sprintf$8) refers to printf8.o(i._printf_core) for _printf_core
    printf8.o(i.__0sprintf$8) refers to printf8.o(i._sputc) for _sputc
    printf8.o(i.__0vfprintf$8) refers to printf8.o(i._printf_core) for _printf_core
    printf8.o(i.__0vfprintf$8) refers to fun.o(.text.fputc) for fputc
    printf8.o(i.__0vprintf$8) refers to printf8.o(i._printf_core) for _printf_core
    printf8.o(i.__0vprintf$8) refers to fun.o(.text.fputc) for fputc
    printf8.o(i.__0vprintf$8) refers to stdout.o(.data) for __stdout
    printf8.o(i.__0vsnprintf$8) refers to printf8.o(i._printf_core) for _printf_core
    printf8.o(i.__0vsnprintf$8) refers to printf8.o(i._snputc) for _snputc
    printf8.o(i.__0vsprintf$8) refers to printf8.o(i._printf_core) for _printf_core
    printf8.o(i.__0vsprintf$8) refers to printf8.o(i._sputc) for _sputc
    printf8.o(i._printf_core) refers to printf8.o(i._printf_pre_padding) for _printf_pre_padding
    printf8.o(i._printf_core) refers to uldiv.o(.text) for __aeabi_uldivmod
    printf8.o(i._printf_core) refers to printf8.o(i._printf_post_padding) for _printf_post_padding
    printfa.o(i.__0fprintf) refers (Special) to iusefp.o(.text) for __I$use$fp
    printfa.o(i.__0fprintf) refers to printfa.o(i._printf_core) for _printf_core
    printfa.o(i.__0fprintf) refers to fun.o(.text.fputc) for fputc
    printfa.o(i.__0printf) refers (Special) to iusefp.o(.text) for __I$use$fp
    printfa.o(i.__0printf) refers to printfa.o(i._printf_core) for _printf_core
    printfa.o(i.__0printf) refers to fun.o(.text.fputc) for fputc
    printfa.o(i.__0printf) refers to stdout.o(.data) for __stdout
    printfa.o(i.__0snprintf) refers (Special) to iusefp.o(.text) for __I$use$fp
    printfa.o(i.__0snprintf) refers to printfa.o(i._printf_core) for _printf_core
    printfa.o(i.__0snprintf) refers to printfa.o(i._snputc) for _snputc
    printfa.o(i.__0sprintf) refers (Special) to iusefp.o(.text) for __I$use$fp
    printfa.o(i.__0sprintf) refers to printfa.o(i._printf_core) for _printf_core
    printfa.o(i.__0sprintf) refers to printfa.o(i._sputc) for _sputc
    printfa.o(i.__0vfprintf) refers (Special) to iusefp.o(.text) for __I$use$fp
    printfa.o(i.__0vfprintf) refers to printfa.o(i._printf_core) for _printf_core
    printfa.o(i.__0vfprintf) refers to fun.o(.text.fputc) for fputc
    printfa.o(i.__0vprintf) refers (Special) to iusefp.o(.text) for __I$use$fp
    printfa.o(i.__0vprintf) refers to printfa.o(i._printf_core) for _printf_core
    printfa.o(i.__0vprintf) refers to fun.o(.text.fputc) for fputc
    printfa.o(i.__0vprintf) refers to stdout.o(.data) for __stdout
    printfa.o(i.__0vsnprintf) refers (Special) to iusefp.o(.text) for __I$use$fp
    printfa.o(i.__0vsnprintf) refers to printfa.o(i._printf_core) for _printf_core
    printfa.o(i.__0vsnprintf) refers to printfa.o(i._snputc) for _snputc
    printfa.o(i.__0vsprintf) refers (Special) to iusefp.o(.text) for __I$use$fp
    printfa.o(i.__0vsprintf) refers to printfa.o(i._printf_core) for _printf_core
    printfa.o(i.__0vsprintf) refers to printfa.o(i._sputc) for _sputc
    printfa.o(i._fp_digits) refers (Special) to iusefp.o(.text) for __I$use$fp
    printfa.o(i._fp_digits) refers to dmul.o(.text) for __aeabi_dmul
    printfa.o(i._fp_digits) refers to ddiv.o(.text) for __aeabi_ddiv
    printfa.o(i._fp_digits) refers to cdrcmple.o(.text) for __aeabi_cdrcmple
    printfa.o(i._fp_digits) refers to dadd.o(.text) for __aeabi_dadd
    printfa.o(i._fp_digits) refers to dfixul.o(.text) for __aeabi_d2ulz
    printfa.o(i._fp_digits) refers to uldiv.o(.text) for __aeabi_uldivmod
    printfa.o(i._printf_core) refers (Special) to iusefp.o(.text) for __I$use$fp
    printfa.o(i._printf_core) refers to printfa.o(i._printf_pre_padding) for _printf_pre_padding
    printfa.o(i._printf_core) refers to uldiv.o(.text) for __aeabi_uldivmod
    printfa.o(i._printf_core) refers to printfa.o(i._printf_post_padding) for _printf_post_padding
    printfa.o(i._printf_core) refers to printfa.o(i._fp_digits) for _fp_digits
    printfa.o(i._printf_core) refers to uidiv.o(.text) for __aeabi_uidivmod
    printfa.o(i._printf_post_padding) refers (Special) to iusefp.o(.text) for __I$use$fp
    printfa.o(i._printf_pre_padding) refers (Special) to iusefp.o(.text) for __I$use$fp
    printfa.o(i._snputc) refers (Special) to iusefp.o(.text) for __I$use$fp
    printfa.o(i._sputc) refers (Special) to iusefp.o(.text) for __I$use$fp
    __0sscanf.o(.text) refers to scanf_char.o(.text) for __vfscanf_char
    __0sscanf.o(.text) refers to _sgetc.o(.text) for _sgetc
    _scanf_int.o(.text) refers to _chval.o(.text) for _chval
    atoi.o(.text) refers to errno.o(i.__aeabi_errno_addr) for __aeabi_errno_addr
    atoi.o(.text) refers to strtol.o(.text) for strtol
    uldiv.o(.text) refers to llushr.o(.text) for __aeabi_llsr
    uldiv.o(.text) refers to llshl.o(.text) for __aeabi_llsl
    errno.o(i.__aeabi_errno_addr) refers to errno.o(.data) for .data
    errno.o(i.__read_errno) refers to errno.o(.data) for .data
    errno.o(i.__set_errno) refers to errno.o(.data) for .data
    scanf_char.o(.text) refers to _scanf.o(.text) for __vfscanf
    scanf_char.o(.text) refers to isspace_o.o(.text) for isspace
    strtol.o(.text) refers to ctype_o.o(.text) for __rt_ctype_table
    strtol.o(.text) refers to _strtoul.o(.text) for _strtoul
    strtol.o(.text) refers to errno.o(i.__aeabi_errno_addr) for __aeabi_errno_addr
    dadd.o(.text) refers (Special) to iusefp.o(.text) for __I$use$fp
    dadd.o(.text) refers to llshl.o(.text) for __aeabi_llsl
    dadd.o(.text) refers to llsshr.o(.text) for __aeabi_lasr
    dadd.o(.text) refers to depilogue.o(.text) for _double_epilogue
    dmul.o(.text) refers (Special) to iusefp.o(.text) for __I$use$fp
    dmul.o(.text) refers to depilogue.o(.text) for _double_epilogue
    ddiv.o(.text) refers (Special) to iusefp.o(.text) for __I$use$fp
    ddiv.o(.text) refers to depilogue.o(.text) for _double_round
    dfixul.o(.text) refers (Special) to iusefp.o(.text) for __I$use$fp
    dfixul.o(.text) refers to llushr.o(.text) for __aeabi_llsr
    dfixul.o(.text) refers to llshl.o(.text) for __aeabi_llsl
    cdrcmple.o(.text) refers (Special) to iusefp.o(.text) for __I$use$fp
    isspace_c.o(.text) refers to ctype_c.o(.text) for __ctype_lookup
    ctype_o.o(.text) refers to ctype_o.o(.constdata) for .constdata
    ctype_o.o(.constdata) refers to ctype_o.o(.constdata) for __ctype_table
    isalnum_o.o(.text) refers to ctype_o.o(.text) for __rt_ctype_table
    isalpha_o.o(.text) refers to ctype_o.o(.text) for __rt_ctype_table
    isblank_o.o(.text) refers to ctype_o.o(.constdata) for __ctype_table
    iscntrl_o.o(.text) refers to ctype_o.o(.text) for __rt_ctype_table
    isdigit_o.o(.text) refers to ctype_o.o(.text) for __rt_ctype_table
    isgraph_o.o(.text) refers to ctype_o.o(.text) for __rt_ctype_table
    islower_o.o(.text) refers to ctype_o.o(.text) for __rt_ctype_table
    isprint_o.o(.text) refers to ctype_o.o(.text) for __rt_ctype_table
    ispunct_o.o(.text) refers to ctype_o.o(.text) for __rt_ctype_table
    isspace_o.o(.text) refers to ctype_o.o(.text) for __rt_ctype_table
    isupper_o.o(.text) refers to ctype_o.o(.text) for __rt_ctype_table
    isxdigit_o.o(.text) refers to ctype_o.o(.text) for __rt_ctype_table
    _scanf.o(.text) refers (Weak) to _scanf_int.o(.text) for _scanf_int
    _strtoul.o(.text) refers to _chval.o(.text) for _chval
    _strtoul.o(.text) refers to errno.o(i.__aeabi_errno_addr) for __aeabi_errno_addr
    depilogue.o(.text) refers (Special) to iusefp.o(.text) for __I$use$fp
    depilogue.o(.text) refers to llshl.o(.text) for __aeabi_llsl
    depilogue.o(.text) refers to llushr.o(.text) for __aeabi_llsr
    ctype_c.o(.text) refers to ctype_c.o(.constdata) for .constdata


==============================================================================

Removing Unused input sections from the image.

    Removing hal_entry.o(.text), (0 bytes).
    Removing hal_entry.o(.ARM.exidx.text.hal_entry), (8 bytes).
    Removing hal_entry.o(.ARM.exidx.text.R_BSP_WarmStart), (8 bytes).
    Removing as608pro.o(.text), (0 bytes).
    Removing as608pro.o(.ARM.exidx.text.finger_addtion), (8 bytes).
    Removing as608pro.o(.ARM.exidx.text.AS608_AddFR), (8 bytes).
    Removing as608pro.o(.ARM.exidx.text.finger_search), (8 bytes).
    Removing as608pro.o(.ARM.exidx.text.AS608_PressFR), (8 bytes).
    Removing as608pro.o(.ARM.exidx.text.uart3_callback), (8 bytes).
    Removing as608pro.o(.ARM.exidx.text.timeout_search_1ms), (8 bytes).
    Removing as608pro.o(.ARM.exidx.text.AS608_Init), (8 bytes).
    Removing as608pro.o(.ARM.exidx.text.AS608_Check), (8 bytes).
    Removing as608pro.o(.ARM.exidx.text.SendHead), (8 bytes).
    Removing as608pro.o(.ARM.exidx.text.PS_GetImage), (8 bytes).
    Removing as608pro.o(.ARM.exidx.text.SendAddr), (8 bytes).
    Removing as608pro.o(.ARM.exidx.text.SendLength), (8 bytes).
    Removing as608pro.o(.ARM.exidx.text.SendCheck), (8 bytes).
    Removing as608pro.o(.ARM.exidx.text.JudgeStr), (8 bytes).
    Removing as608pro.o(.ARM.exidx.text.PS_GenChar), (8 bytes).
    Removing as608pro.o(.ARM.exidx.text.PS_Match), (8 bytes).
    Removing as608pro.o(.text.PS_Search), (312 bytes).
    Removing as608pro.o(.ARM.exidx.text.PS_Search), (8 bytes).
    Removing as608pro.o(.ARM.exidx.text.PS_RegModel), (8 bytes).
    Removing as608pro.o(.ARM.exidx.text.PS_StoreChar), (8 bytes).
    Removing as608pro.o(.ARM.exidx.text.PS_DeletChar), (8 bytes).
    Removing as608pro.o(.ARM.exidx.text.PS_Empty), (8 bytes).
    Removing as608pro.o(.text.PS_WriteReg), (190 bytes).
    Removing as608pro.o(.ARM.exidx.text.PS_WriteReg), (8 bytes).
    Removing as608pro.o(.ARM.exidx.text.PS_ReadSysPara), (8 bytes).
    Removing as608pro.o(.text.PS_SetAddr), (278 bytes).
    Removing as608pro.o(.ARM.exidx.text.PS_SetAddr), (8 bytes).
    Removing as608pro.o(.text.PS_WriteNotepad), (230 bytes).
    Removing as608pro.o(.ARM.exidx.text.PS_WriteNotepad), (8 bytes).
    Removing as608pro.o(.text.PS_ReadNotepad), (176 bytes).
    Removing as608pro.o(.ARM.exidx.text.PS_ReadNotepad), (8 bytes).
    Removing as608pro.o(.ARM.exidx.text.PS_HighSpeedSearch), (8 bytes).
    Removing as608pro.o(.ARM.exidx.text.PS_ValidTempleteNum), (8 bytes).
    Removing as608pro.o(.ARM.exidx.text.PS_HandShake), (8 bytes).
    Removing as608pro.o(.ARM.exidx.text.AS608_DeleteFR), (8 bytes).
    Removing as608pro.o(.ARM.exidx.text.AS608_GetFRNumber), (8 bytes).
    Removing as608pro.o(.bss.aa), (4 bytes).
    Removing fun.o(.text), (0 bytes).
    Removing fun.o(.text.print_msg), (36 bytes).
    Removing fun.o(.ARM.exidx.text.print_msg), (8 bytes).
    Removing fun.o(.ARM.exidx.text.timer_1ms_callback), (8 bytes).
    Removing fun.o(.ARM.exidx.text.uart7_callback), (8 bytes).
    Removing fun.o(.text.uart7_wait_for_tx), (20 bytes).
    Removing fun.o(.ARM.exidx.text.uart7_wait_for_tx), (8 bytes).
    Removing fun.o(.text.uart7_wait_for_rx), (20 bytes).
    Removing fun.o(.ARM.exidx.text.uart7_wait_for_rx), (8 bytes).
    Removing fun.o(.ARM.exidx.text.key_scan), (8 bytes).
    Removing fun.o(.text.circlebuf_init), (50 bytes).
    Removing fun.o(.ARM.exidx.text.circlebuf_init), (8 bytes).
    Removing fun.o(.text.circlebuf_get), (38 bytes).
    Removing fun.o(.ARM.exidx.text.circlebuf_get), (8 bytes).
    Removing fun.o(.text.circlebuf_put), (40 bytes).
    Removing fun.o(.ARM.exidx.text.circlebuf_put), (8 bytes).
    Removing fun.o(.ARM.exidx.text.fputc), (8 bytes).
    Removing fun.o(.text.fgetc), (114 bytes).
    Removing fun.o(.ARM.exidx.text.fgetc), (8 bytes).
    Removing fun.o(.bss.dakai_flag), (1 bytes).
    Removing fun.o(.bss.rx_buf), (64 bytes).
    Removing pn532.o(.text), (0 bytes).
    Removing pn532.o(.text.get_PN532_recv_buf), (10 bytes).
    Removing pn532.o(.ARM.exidx.text.get_PN532_recv_buf), (8 bytes).
    Removing pn532.o(.ARM.exidx.text.PN532_INIT), (8 bytes).
    Removing pn532.o(.ARM.exidx.text.PN532_GetFirmVersion), (8 bytes).
    Removing pn532.o(.ARM.exidx.text.PN532_SetSamConfig), (8 bytes).
    Removing pn532.o(.ARM.exidx.text.PN532_connect), (8 bytes).
    Removing pn532.o(.ARM.exidx.text.PN532_ReadPassTarget), (8 bytes).
    Removing pn532.o(.ARM.exidx.text.PN532_send_data), (8 bytes).
    Removing pn532.o(.ARM.exidx.text.PN532_WaitReady), (8 bytes).
    Removing pn532.o(.ARM.exidx.text.PN532_recv), (8 bytes).
    Removing pn532.o(.ARM.exidx.text.PN532_recv_ack), (8 bytes).
    Removing pn532.o(.ARM.exidx.text.PN532_parse_frame), (8 bytes).
    Removing pn532.o(.ARM.exidx.text.PN532_recv_data), (8 bytes).
    Removing pn532.o(.text.PN532_SendGetFirmwareVersion), (22 bytes).
    Removing pn532.o(.ARM.exidx.text.PN532_SendGetFirmwareVersion), (8 bytes).
    Removing pn532.o(.text.PN532_SendSamConfig), (36 bytes).
    Removing pn532.o(.ARM.exidx.text.PN532_SendSamConfig), (8 bytes).
    Removing pn532.o(.text.PN532_SendReadPassiveTarget), (30 bytes).
    Removing pn532.o(.ARM.exidx.text.PN532_SendReadPassiveTarget), (8 bytes).
    Removing pn532.o(.text.PN532_SendMifareClassicAuthBlock), (88 bytes).
    Removing pn532.o(.ARM.exidx.text.PN532_SendMifareClassicAuthBlock), (8 bytes).
    Removing pn532.o(.text.PN532_MifareClassicAuthBlock), (98 bytes).
    Removing pn532.o(.ARM.exidx.text.PN532_MifareClassicAuthBlock), (8 bytes).
    Removing pn532.o(.text.PN532_SendReadDataBlock), (32 bytes).
    Removing pn532.o(.ARM.exidx.text.PN532_SendReadDataBlock), (8 bytes).
    Removing pn532.o(.text.PN532_ReadDataBlock), (130 bytes).
    Removing pn532.o(.ARM.exidx.text.PN532_ReadDataBlock), (8 bytes).
    Removing pn532.o(.text.PN532_SendWriteDataBlock), (44 bytes).
    Removing pn532.o(.ARM.exidx.text.PN532_SendWriteDataBlock), (8 bytes).
    Removing pn532.o(.text.PN532_WriteDataBlock), (124 bytes).
    Removing pn532.o(.ARM.exidx.text.PN532_WriteDataBlock), (8 bytes).
    Removing pn532.o(.text.PN532_SendSetParameters), (28 bytes).
    Removing pn532.o(.ARM.exidx.text.PN532_SendSetParameters), (8 bytes).
    Removing pn532.o(.text.PN532_SetParameters), (112 bytes).
    Removing pn532.o(.ARM.exidx.text.PN532_SetParameters), (8 bytes).
    Removing pn532.o(.text.PN532_SendNtag2xxAuth), (44 bytes).
    Removing pn532.o(.ARM.exidx.text.PN532_SendNtag2xxAuth), (8 bytes).
    Removing pn532.o(.text.PN532_Ntag2xxAuth), (146 bytes).
    Removing pn532.o(.ARM.exidx.text.PN532_Ntag2xxAuth), (8 bytes).
    Removing pn532.o(.text.PN532_SendNtag2xxReadBlock), (32 bytes).
    Removing pn532.o(.ARM.exidx.text.PN532_SendNtag2xxReadBlock), (8 bytes).
    Removing pn532.o(.text.PN532_Ntag2xxReadBlock), (130 bytes).
    Removing pn532.o(.ARM.exidx.text.PN532_Ntag2xxReadBlock), (8 bytes).
    Removing pn532.o(.text.PN532_SendNtag2xxWriteBlock), (52 bytes).
    Removing pn532.o(.ARM.exidx.text.PN532_SendNtag2xxWriteBlock), (8 bytes).
    Removing pn532.o(.text.PN532_Ntag2xxWriteBlock), (90 bytes).
    Removing pn532.o(.ARM.exidx.text.PN532_Ntag2xxWriteBlock), (8 bytes).
    Removing pn532.o(.bss.msg), (100 bytes).
    Removing pn532_hal.o(.text), (0 bytes).
    Removing pn532_hal.o(.ARM.exidx.text.i2c_master_callback), (8 bytes).
    Removing pn532_hal.o(.ARM.exidx.text.g_system_tick), (8 bytes).
    Removing pn532_hal.o(.ARM.exidx.text.PN532_GetTick), (8 bytes).
    Removing pn532_hal.o(.ARM.exidx.text.PN532_I2C_Transmit), (8 bytes).
    Removing pn532_hal.o(.ARM.exidx.text.PN532_I2C_Receive), (8 bytes).
    Removing pn532_hal.o(.ARM.exidx.text.PN532_Init_Hardware), (8 bytes).
    Removing tjc_usart_hmi.o(.text), (0 bytes).
    Removing tjc_usart_hmi.o(.ARM.exidx.text.UART_HIM_Init), (8 bytes).
    Removing tjc_usart_hmi.o(.text.initRingBuffer), (16 bytes).
    Removing tjc_usart_hmi.o(.ARM.exidx.text.initRingBuffer), (8 bytes).
    Removing tjc_usart_hmi.o(.text.intToStr), (114 bytes).
    Removing tjc_usart_hmi.o(.ARM.exidx.text.intToStr), (8 bytes).
    Removing tjc_usart_hmi.o(.text.uart_send_char), (54 bytes).
    Removing tjc_usart_hmi.o(.ARM.exidx.text.uart_send_char), (8 bytes).
    Removing tjc_usart_hmi.o(.text.uart5_wait_for_tx), (20 bytes).
    Removing tjc_usart_hmi.o(.ARM.exidx.text.uart5_wait_for_tx), (8 bytes).
    Removing tjc_usart_hmi.o(.text.uart_send_string), (80 bytes).
    Removing tjc_usart_hmi.o(.ARM.exidx.text.uart_send_string), (8 bytes).
    Removing tjc_usart_hmi.o(.ARM.exidx.text.tjc_send_string), (8 bytes).
    Removing tjc_usart_hmi.o(.text.tjc_send_txt), (200 bytes).
    Removing tjc_usart_hmi.o(.ARM.exidx.text.tjc_send_txt), (8 bytes).
    Removing tjc_usart_hmi.o(.text.tjc_send_val), (208 bytes).
    Removing tjc_usart_hmi.o(.ARM.exidx.text.tjc_send_val), (8 bytes).
    Removing tjc_usart_hmi.o(.text.tjc_send_nstring), (184 bytes).
    Removing tjc_usart_hmi.o(.ARM.exidx.text.tjc_send_nstring), (8 bytes).
    Removing tjc_usart_hmi.o(.text.uart5_wait_for_rx), (20 bytes).
    Removing tjc_usart_hmi.o(.ARM.exidx.text.uart5_wait_for_rx), (8 bytes).
    Removing tjc_usart_hmi.o(.ARM.exidx.text.uart5_callback), (8 bytes).
    Removing tjc_usart_hmi.o(.text.write1ByteToRingBuffer), (70 bytes).
    Removing tjc_usart_hmi.o(.ARM.exidx.text.write1ByteToRingBuffer), (8 bytes).
    Removing tjc_usart_hmi.o(.ARM.exidx.text.HIM_connection), (8 bytes).
    Removing tjc_usart_hmi.o(.text.getRingBufferLength), (12 bytes).
    Removing tjc_usart_hmi.o(.ARM.exidx.text.getRingBufferLength), (8 bytes).
    Removing tjc_usart_hmi.o(.text.read1ByteFromRingBuffer), (40 bytes).
    Removing tjc_usart_hmi.o(.ARM.exidx.text.read1ByteFromRingBuffer), (8 bytes).
    Removing tjc_usart_hmi.o(.text.deleteRingBuffer), (58 bytes).
    Removing tjc_usart_hmi.o(.ARM.exidx.text.deleteRingBuffer), (8 bytes).
    Removing tjc_usart_hmi.o(.text.isRingBufferOverflow), (22 bytes).
    Removing tjc_usart_hmi.o(.ARM.exidx.text.isRingBufferOverflow), (8 bytes).
    Removing tjc_usart_hmi.o(.bss.USART_Tbuffer_Num), (1 bytes).
    Removing tjc_usart_hmi.o(.bss.RxBuffer), (1 bytes).
    Removing k230_connect.o(.text), (0 bytes).
    Removing k230_connect.o(.text.uart8_wait_for_tx), (20 bytes).
    Removing k230_connect.o(.ARM.exidx.text.uart8_wait_for_tx), (8 bytes).
    Removing k230_connect.o(.text.uart8_wait_for_rx), (20 bytes).
    Removing k230_connect.o(.ARM.exidx.text.uart8_wait_for_rx), (8 bytes).
    Removing k230_connect.o(.ARM.exidx.text.process_uart8_data), (8 bytes).
    Removing k230_connect.o(.ARM.exidx.text.uart8_callback), (8 bytes).
    Removing k230_connect.o(.ARM.exidx.text.uart8_send_value), (8 bytes).
    Removing k230_connect.o(.text.uart8_process), (4 bytes).
    Removing k230_connect.o(.ARM.exidx.text.uart8_process), (8 bytes).
    Removing k230_connect.o(.ARM.exidx.text.uart8_init), (8 bytes).
    Removing k230_connect.o(.bss.g_uart8_rx_complete), (4 bytes).
    Removing esp_connect.o(.text), (0 bytes).
    Removing esp_connect.o(.text.uart2_wait_for_tx), (20 bytes).
    Removing esp_connect.o(.ARM.exidx.text.uart2_wait_for_tx), (8 bytes).
    Removing esp_connect.o(.text.uart2_wait_for_rx), (20 bytes).
    Removing esp_connect.o(.ARM.exidx.text.uart2_wait_for_rx), (8 bytes).
    Removing esp_connect.o(.ARM.exidx.text.timer_callback), (8 bytes).
    Removing esp_connect.o(.ARM.exidx.text.process_uart2_data), (8 bytes).
    Removing esp_connect.o(.ARM.exidx.text.update_clock_display), (8 bytes).
    Removing esp_connect.o(.ARM.exidx.text.dakai_clock_display), (8 bytes).
    Removing esp_connect.o(.ARM.exidx.text.uart2_callback), (8 bytes).
    Removing esp_connect.o(.ARM.exidx.text.uart2_send_value), (8 bytes).
    Removing esp_connect.o(.ARM.exidx.text.uart2_send_string), (8 bytes).
    Removing esp_connect.o(.ARM.exidx.text.send_wifi_to_esp32), (8 bytes).
    Removing esp_connect.o(.ARM.exidx.text.uart2_init), (8 bytes).
    Removing esp_connect.o(.bss.g_uart2_rx_complete), (4 bytes).
    Removing asr_pro.o(.text), (0 bytes).
    Removing asr_pro.o(.text.uart9_wait_for_tx), (20 bytes).
    Removing asr_pro.o(.ARM.exidx.text.uart9_wait_for_tx), (8 bytes).
    Removing asr_pro.o(.text.uart9_wait_for_rx), (20 bytes).
    Removing asr_pro.o(.ARM.exidx.text.uart9_wait_for_rx), (8 bytes).
    Removing asr_pro.o(.text.process_uart9_data), (40 bytes).
    Removing asr_pro.o(.ARM.exidx.text.process_uart9_data), (8 bytes).
    Removing asr_pro.o(.ARM.exidx.text.uart9_callback), (8 bytes).
    Removing asr_pro.o(.ARM.exidx.text.uart9_send_value), (8 bytes).
    Removing asr_pro.o(.ARM.exidx.text.uart9_init), (8 bytes).
    Removing asr_pro.o(.bss.g_uart9_rx_complete), (4 bytes).
    Removing asr_pro.o(.rodata.str1.1), (9 bytes).
    Removing motor.o(.text), (0 bytes).
    Removing motor.o(.ARM.exidx.text.motor_init), (8 bytes).
    Removing motor.o(.text.motor_set_pulse), (146 bytes).
    Removing motor.o(.ARM.exidx.text.motor_set_pulse), (8 bytes).
    Removing motor.o(.text.motor_set_angle), (44 bytes).
    Removing motor.o(.ARM.exidx.text.motor_set_angle), (8 bytes).
    Removing motor.o(.text.motor_stop), (66 bytes).
    Removing motor.o(.ARM.exidx.text.motor_stop), (8 bytes).
    Removing motor.o(.text.motor_deinit), (86 bytes).
    Removing motor.o(.ARM.exidx.text.motor_deinit), (8 bytes).
    Removing motor.o(.ARM.exidx.text.motor_task), (8 bytes).
    Removing startup.o(.text), (0 bytes).
    Removing startup.o(.ARM.exidx.text.Reset_Handler), (8 bytes).
    Removing startup.o(.ARM.exidx.text.Default_Handler), (8 bytes).
    Removing system.o(.text), (0 bytes).
    Removing system.o(.ARM.exidx.text.SystemInit), (8 bytes).
    Removing system.o(.text.R_BSP_WarmStart), (2 bytes).
    Removing system.o(.ARM.exidx.text.R_BSP_WarmStart), (8 bytes).
    Removing bsp_clocks.o(.text), (0 bytes).
    Removing bsp_clocks.o(.text.bsp_prv_operating_mode_set), (68 bytes).
    Removing bsp_clocks.o(.ARM.exidx.text.bsp_prv_operating_mode_set), (8 bytes).
    Removing bsp_clocks.o(.text.bsp_prv_prepare_pll), (24 bytes).
    Removing bsp_clocks.o(.ARM.exidx.text.bsp_prv_prepare_pll), (8 bytes).
    Removing bsp_clocks.o(.ARM.exidx.text.SystemCoreClockUpdate), (8 bytes).
    Removing bsp_clocks.o(.text.prv_clock_dividers_set), (12 bytes).
    Removing bsp_clocks.o(.ARM.exidx.text.prv_clock_dividers_set), (8 bytes).
    Removing bsp_clocks.o(.text.bsp_prv_clock_set), (204 bytes).
    Removing bsp_clocks.o(.ARM.exidx.text.bsp_prv_clock_set), (8 bytes).
    Removing bsp_clocks.o(.ARM.exidx.text.bsp_clock_init), (8 bytes).
    Removing bsp_clocks.o(.text.R_BSP_SubClockStabilizeWait), (8 bytes).
    Removing bsp_clocks.o(.ARM.exidx.text.R_BSP_SubClockStabilizeWait), (8 bytes).
    Removing bsp_clocks.o(.ARM.exidx.text.R_BSP_SubClockStabilizeWaitAfterReset), (8 bytes).
    Removing bsp_clocks.o(.text.R_BSP_OctaclkUpdate), (78 bytes).
    Removing bsp_clocks.o(.ARM.exidx.text.R_BSP_OctaclkUpdate), (8 bytes).
    Removing bsp_clocks.o(.text.R_BSP_SourceClockHzGet), (14 bytes).
    Removing bsp_clocks.o(.ARM.exidx.text.R_BSP_SourceClockHzGet), (8 bytes).
    Removing bsp_clocks.o(.ARM.exidx.text.R_BSP_Init_RTC), (8 bytes).
    Removing bsp_common.o(.text), (0 bytes).
    Removing bsp_common.o(.ARM.exidx.text.bsp_init_internal), (8 bytes).
    Removing bsp_common.o(.text.R_FSP_VersionGet), (12 bytes).
    Removing bsp_common.o(.ARM.exidx.text.R_FSP_VersionGet), (8 bytes).
    Removing bsp_common.o(.text.__aeabi_assert), (6 bytes).
    Removing bsp_common.o(.ARM.exidx.text.__aeabi_assert), (8 bytes).
    Removing bsp_delay.o(.text), (0 bytes).
    Removing bsp_delay.o(.ARM.exidx.text.R_BSP_SoftwareDelay), (8 bytes).
    Removing bsp_delay.o(.ARM.exidx.text.bsp_prv_software_delay_loop), (8 bytes).
    Removing bsp_group_irq.o(.text), (0 bytes).
    Removing bsp_group_irq.o(.text.R_BSP_GroupIrqWrite), (18 bytes).
    Removing bsp_group_irq.o(.ARM.exidx.text.R_BSP_GroupIrqWrite), (8 bytes).
    Removing bsp_group_irq.o(.ARM.exidx.text.NMI_Handler), (8 bytes).
    Removing bsp_guard.o(.text), (0 bytes).
    Removing bsp_io.o(.text), (0 bytes).
    Removing bsp_irq.o(.text), (0 bytes).
    Removing bsp_irq.o(.ARM.exidx.text.bsp_irq_cfg), (8 bytes).
    Removing bsp_irq.o(.rodata.g_interrupt_event_link_select), (384 bytes).
    Removing bsp_macl.o(.text), (0 bytes).
    Removing bsp_register_protection.o(.text), (0 bytes).
    Removing bsp_register_protection.o(.ARM.exidx.text.R_BSP_RegisterProtectEnable), (8 bytes).
    Removing bsp_register_protection.o(.ARM.exidx.text.R_BSP_RegisterProtectDisable), (8 bytes).
    Removing bsp_rom_registers.o(.text), (0 bytes).
    Removing bsp_sbrk.o(.text), (0 bytes).
    Removing bsp_sdram.o(.text), (0 bytes).
    Removing bsp_security.o(.text), (0 bytes).
    Removing r_gpt.o(.text), (0 bytes).
    Removing r_gpt.o(.ARM.exidx.text.R_GPT_Open), (8 bytes).
    Removing r_gpt.o(.ARM.exidx.text.R_GPT_Start), (8 bytes).
    Removing r_gpt.o(.ARM.exidx.text.R_GPT_Stop), (8 bytes).
    Removing r_gpt.o(.ARM.exidx.text.R_GPT_Reset), (8 bytes).
    Removing r_gpt.o(.ARM.exidx.text.R_GPT_Enable), (8 bytes).
    Removing r_gpt.o(.ARM.exidx.text.R_GPT_Disable), (8 bytes).
    Removing r_gpt.o(.ARM.exidx.text.R_GPT_PeriodSet), (8 bytes).
    Removing r_gpt.o(.ARM.exidx.text.R_GPT_DutyCycleSet), (8 bytes).
    Removing r_gpt.o(.ARM.exidx.text.R_GPT_CompareMatchSet), (8 bytes).
    Removing r_gpt.o(.ARM.exidx.text.R_GPT_InfoGet), (8 bytes).
    Removing r_gpt.o(.ARM.exidx.text.R_GPT_StatusGet), (8 bytes).
    Removing r_gpt.o(.ARM.exidx.text.R_GPT_CallbackSet), (8 bytes).
    Removing r_gpt.o(.ARM.exidx.text.R_GPT_Close), (8 bytes).
    Removing r_gpt.o(.ARM.exidx.text.gpt_calculate_duty_cycle), (8 bytes).
    Removing r_gpt.o(.text.R_GPT_CounterSet), (8 bytes).
    Removing r_gpt.o(.ARM.exidx.text.R_GPT_CounterSet), (8 bytes).
    Removing r_gpt.o(.text.R_GPT_OutputEnable), (26 bytes).
    Removing r_gpt.o(.ARM.exidx.text.R_GPT_OutputEnable), (8 bytes).
    Removing r_gpt.o(.text.R_GPT_OutputDisable), (26 bytes).
    Removing r_gpt.o(.ARM.exidx.text.R_GPT_OutputDisable), (8 bytes).
    Removing r_gpt.o(.text.R_GPT_AdcTriggerSet), (12 bytes).
    Removing r_gpt.o(.ARM.exidx.text.R_GPT_AdcTriggerSet), (8 bytes).
    Removing r_gpt.o(.text.R_GPT_PwmOutputDelaySet), (4 bytes).
    Removing r_gpt.o(.ARM.exidx.text.R_GPT_PwmOutputDelaySet), (8 bytes).
    Removing r_gpt.o(.text.R_GPT_PwmOutputDelayInitialize), (4 bytes).
    Removing r_gpt.o(.ARM.exidx.text.R_GPT_PwmOutputDelayInitialize), (8 bytes).
    Removing r_gpt.o(.ARM.exidx.text.gpt_counter_overflow_isr), (8 bytes).
    Removing r_gpt.o(.text.gpt_capture_compare_a_isr), (6 bytes).
    Removing r_gpt.o(.ARM.exidx.text.gpt_capture_compare_a_isr), (8 bytes).
    Removing r_gpt.o(.text.r_gpt_ccmp_common_isr), (214 bytes).
    Removing r_gpt.o(.ARM.exidx.text.r_gpt_ccmp_common_isr), (8 bytes).
    Removing r_gpt.o(.text.gpt_capture_compare_b_isr), (6 bytes).
    Removing r_gpt.o(.ARM.exidx.text.gpt_capture_compare_b_isr), (8 bytes).
    Removing r_gpt.o(.ARM.exidx.text.r_gpt_enable_irq), (8 bytes).
    Removing r_iic_master.o(.text), (0 bytes).
    Removing r_iic_master.o(.ARM.exidx.text.R_IIC_MASTER_Open), (8 bytes).
    Removing r_iic_master.o(.ARM.exidx.text.R_IIC_MASTER_Read), (8 bytes).
    Removing r_iic_master.o(.ARM.exidx.text.R_IIC_MASTER_Write), (8 bytes).
    Removing r_iic_master.o(.ARM.exidx.text.R_IIC_MASTER_Abort), (8 bytes).
    Removing r_iic_master.o(.ARM.exidx.text.R_IIC_MASTER_SlaveAddressSet), (8 bytes).
    Removing r_iic_master.o(.ARM.exidx.text.R_IIC_MASTER_CallbackSet), (8 bytes).
    Removing r_iic_master.o(.ARM.exidx.text.R_IIC_MASTER_StatusGet), (8 bytes).
    Removing r_iic_master.o(.ARM.exidx.text.R_IIC_MASTER_Close), (8 bytes).
    Removing r_iic_master.o(.ARM.exidx.text.iic_master_open_hw_master), (8 bytes).
    Removing r_iic_master.o(.ARM.exidx.text.iic_master_read_write), (8 bytes).
    Removing r_iic_master.o(.ARM.exidx.text.iic_master_rxi_isr), (8 bytes).
    Removing r_iic_master.o(.ARM.exidx.text.iic_master_txi_isr), (8 bytes).
    Removing r_iic_master.o(.ARM.exidx.text.iic_master_tei_isr), (8 bytes).
    Removing r_iic_master.o(.ARM.exidx.text.iic_master_eri_isr), (8 bytes).
    Removing r_iic_master.o(.ARM.exidx.text.iic_master_notify), (8 bytes).
    Removing r_ioport.o(.text), (0 bytes).
    Removing r_ioport.o(.ARM.exidx.text.R_IOPORT_Open), (8 bytes).
    Removing r_ioport.o(.ARM.exidx.text.R_IOPORT_Close), (8 bytes).
    Removing r_ioport.o(.ARM.exidx.text.R_IOPORT_PinsCfg), (8 bytes).
    Removing r_ioport.o(.ARM.exidx.text.R_IOPORT_PinCfg), (8 bytes).
    Removing r_ioport.o(.ARM.exidx.text.R_IOPORT_PinEventInputRead), (8 bytes).
    Removing r_ioport.o(.ARM.exidx.text.R_IOPORT_PinEventOutputWrite), (8 bytes).
    Removing r_ioport.o(.ARM.exidx.text.R_IOPORT_PinRead), (8 bytes).
    Removing r_ioport.o(.ARM.exidx.text.R_IOPORT_PinWrite), (8 bytes).
    Removing r_ioport.o(.ARM.exidx.text.R_IOPORT_PortDirectionSet), (8 bytes).
    Removing r_ioport.o(.ARM.exidx.text.R_IOPORT_PortEventInputRead), (8 bytes).
    Removing r_ioport.o(.ARM.exidx.text.R_IOPORT_PortEventOutputWrite), (8 bytes).
    Removing r_ioport.o(.ARM.exidx.text.R_IOPORT_PortRead), (8 bytes).
    Removing r_ioport.o(.ARM.exidx.text.R_IOPORT_PortWrite), (8 bytes).
    Removing r_ioport.o(.ARM.exidx.text.r_ioport_pins_config), (8 bytes).
    Removing r_ioport.o(.ARM.exidx.text.bsp_vbatt_init), (8 bytes).
    Removing r_sci_uart.o(.text), (0 bytes).
    Removing r_sci_uart.o(.ARM.exidx.text.R_SCI_UART_Open), (8 bytes).
    Removing r_sci_uart.o(.ARM.exidx.text.R_SCI_UART_Read), (8 bytes).
    Removing r_sci_uart.o(.ARM.exidx.text.R_SCI_UART_Write), (8 bytes).
    Removing r_sci_uart.o(.ARM.exidx.text.R_SCI_UART_BaudSet), (8 bytes).
    Removing r_sci_uart.o(.ARM.exidx.text.R_SCI_UART_InfoGet), (8 bytes).
    Removing r_sci_uart.o(.ARM.exidx.text.R_SCI_UART_Abort), (8 bytes).
    Removing r_sci_uart.o(.ARM.exidx.text.R_SCI_UART_CallbackSet), (8 bytes).
    Removing r_sci_uart.o(.ARM.exidx.text.R_SCI_UART_Close), (8 bytes).
    Removing r_sci_uart.o(.ARM.exidx.text.R_SCI_UART_ReadStop), (8 bytes).
    Removing r_sci_uart.o(.text.R_SCI_UART_BaudCalculate), (400 bytes).
    Removing r_sci_uart.o(.ARM.exidx.text.R_SCI_UART_BaudCalculate), (8 bytes).
    Removing r_sci_uart.o(.ARM.exidx.text.sci_uart_txi_isr), (8 bytes).
    Removing r_sci_uart.o(.ARM.exidx.text.r_sci_uart_call_callback), (8 bytes).
    Removing r_sci_uart.o(.ARM.exidx.text.sci_uart_rxi_isr), (8 bytes).
    Removing r_sci_uart.o(.ARM.exidx.text.sci_uart_tei_isr), (8 bytes).
    Removing r_sci_uart.o(.ARM.exidx.text.sci_uart_eri_isr), (8 bytes).
    Removing r_sci_uart.o(.rodata.g_async_baud), (13 bytes).
    Removing r_sci_uart.o(.rodata.g_div_coefficient), (26 bytes).
    Removing common_data.o(.text), (0 bytes).
    Removing common_data.o(.text.g_common_init), (2 bytes).
    Removing common_data.o(.ARM.exidx.text.g_common_init), (8 bytes).
    Removing hal_data.o(.text), (0 bytes).
    Removing hal_data.o(.text.g_hal_init), (4 bytes).
    Removing hal_data.o(.ARM.exidx.text.g_hal_init), (8 bytes).
    Removing hal_data.o(.rodata.g_timer2), (12 bytes).
    Removing hal_data.o(.rodata.g_timer1), (12 bytes).
    Removing main.o(.text), (0 bytes).
    Removing main.o(.ARM.exidx.text.main), (8 bytes).
    Removing main.o(.ARM.use_no_argv), (4 bytes).
    Removing pin_data.o(.text), (0 bytes).
    Removing vector_data.o(.text), (0 bytes).
    Removing dadd.o(.text), (334 bytes).
    Removing dmul.o(.text), (228 bytes).
    Removing ddiv.o(.text), (222 bytes).
    Removing dfixul.o(.text), (48 bytes).
    Removing cdrcmple.o(.text), (48 bytes).
    Removing depilogue.o(.text), (186 bytes).

360 unused section(s) (total 9023 bytes) removed from the image.

==============================================================================

Image Symbol Table

    Local Symbols

    Symbol Name                              Value     Ov Type        Size  Object(Section)

    ../clib/division.s                       0x00000000   Number         0  aeabi_sdiv.o ABSOLUTE
    ../clib/microlib/ctype/ctype.c           0x00000000   Number         0  isspace_c.o ABSOLUTE
    ../clib/microlib/ctype/ctype.c           0x00000000   Number         0  ctype_o.o ABSOLUTE
    ../clib/microlib/ctype/ctype.c           0x00000000   Number         0  isalnum_o.o ABSOLUTE
    ../clib/microlib/ctype/ctype.c           0x00000000   Number         0  isalpha_o.o ABSOLUTE
    ../clib/microlib/ctype/ctype.c           0x00000000   Number         0  isblank_o.o ABSOLUTE
    ../clib/microlib/ctype/ctype.c           0x00000000   Number         0  iscntrl_o.o ABSOLUTE
    ../clib/microlib/ctype/ctype.c           0x00000000   Number         0  isdigit_o.o ABSOLUTE
    ../clib/microlib/ctype/ctype.c           0x00000000   Number         0  isgraph_o.o ABSOLUTE
    ../clib/microlib/ctype/ctype.c           0x00000000   Number         0  islower_o.o ABSOLUTE
    ../clib/microlib/ctype/ctype.c           0x00000000   Number         0  isprint_o.o ABSOLUTE
    ../clib/microlib/ctype/ctype.c           0x00000000   Number         0  ispunct_o.o ABSOLUTE
    ../clib/microlib/ctype/ctype.c           0x00000000   Number         0  isspace_o.o ABSOLUTE
    ../clib/microlib/ctype/ctype.c           0x00000000   Number         0  isupper_o.o ABSOLUTE
    ../clib/microlib/ctype/ctype.c           0x00000000   Number         0  isxdigit_o.o ABSOLUTE
    ../clib/microlib/ctype/ctype.c           0x00000000   Number         0  ctype_c.o ABSOLUTE
    ../clib/microlib/division.c              0x00000000   Number         0  ldiv.o ABSOLUTE
    ../clib/microlib/division.c              0x00000000   Number         0  uidiv.o ABSOLUTE
    ../clib/microlib/division.c              0x00000000   Number         0  uldiv.o ABSOLUTE
    ../clib/microlib/errno.c                 0x00000000   Number         0  errno.o ABSOLUTE
    ../clib/microlib/longlong.c              0x00000000   Number         0  llshl.o ABSOLUTE
    ../clib/microlib/longlong.c              0x00000000   Number         0  llushr.o ABSOLUTE
    ../clib/microlib/longlong.c              0x00000000   Number         0  llsshr.o ABSOLUTE
    ../clib/microlib/printf/printf.c         0x00000000   Number         0  printfb.o ABSOLUTE
    ../clib/microlib/printf/printf.c         0x00000000   Number         0  printf0.o ABSOLUTE
    ../clib/microlib/printf/printf.c         0x00000000   Number         0  printf1.o ABSOLUTE
    ../clib/microlib/printf/printf.c         0x00000000   Number         0  printf2.o ABSOLUTE
    ../clib/microlib/printf/printf.c         0x00000000   Number         0  printf3.o ABSOLUTE
    ../clib/microlib/printf/printf.c         0x00000000   Number         0  printf4.o ABSOLUTE
    ../clib/microlib/printf/printf.c         0x00000000   Number         0  printf5.o ABSOLUTE
    ../clib/microlib/printf/printf.c         0x00000000   Number         0  printf6.o ABSOLUTE
    ../clib/microlib/printf/printf.c         0x00000000   Number         0  printf7.o ABSOLUTE
    ../clib/microlib/printf/printf.c         0x00000000   Number         0  printf8.o ABSOLUTE
    ../clib/microlib/printf/printf.c         0x00000000   Number         0  printfa.o ABSOLUTE
    ../clib/microlib/printf/stubs.s          0x00000000   Number         0  printfstubs.o ABSOLUTE
    ../clib/microlib/stdio/puts.c            0x00000000   Number         0  puts.o ABSOLUTE
    ../clib/microlib/stdio/puts.c            0x00000000   Number         0  puts_e.o ABSOLUTE
    ../clib/microlib/stdio/streams.c         0x00000000   Number         0  stdout.o ABSOLUTE
    ../clib/microlib/string/memcmp.c         0x00000000   Number         0  memcmp.o ABSOLUTE
    ../clib/microlib/string/memcpy.c         0x00000000   Number         0  memcpya.o ABSOLUTE
    ../clib/microlib/string/memcpy.c         0x00000000   Number         0  memcpyb.o ABSOLUTE
    ../clib/microlib/string/memset.c         0x00000000   Number         0  memseta.o ABSOLUTE
    ../clib/microlib/string/strchr.c         0x00000000   Number         0  strchr.o ABSOLUTE
    ../clib/microlib/string/strcpy.c         0x00000000   Number         0  strcpy.o ABSOLUTE
    ../clib/microlib/string/strlen.c         0x00000000   Number         0  strlen.o ABSOLUTE
    ../clib/microlib/string/strstr.c         0x00000000   Number         0  strstr.o ABSOLUTE
    ../clib/microlib/stubs.s                 0x00000000   Number         0  iusefp.o ABSOLUTE
    ../clib/scanf.c                          0x00000000   Number         0  __0sscanf.o ABSOLUTE
    ../clib/scanf.c                          0x00000000   Number         0  _scanf_int.o ABSOLUTE
    ../clib/scanf.c                          0x00000000   Number         0  atoi.o ABSOLUTE
    ../clib/scanf.c                          0x00000000   Number         0  _chval.o ABSOLUTE
    ../clib/scanf.c                          0x00000000   Number         0  scanf_char.o ABSOLUTE
    ../clib/scanf.c                          0x00000000   Number         0  _sgetc.o ABSOLUTE
    ../clib/scanf.c                          0x00000000   Number         0  strtol.o ABSOLUTE
    ../clib/scanf.c                          0x00000000   Number         0  _scanf.o ABSOLUTE
    ../clib/scanf.c                          0x00000000   Number         0  _strtoul.o ABSOLUTE
    ../fplib/microlib/fpadd.c                0x00000000   Number         0  dadd.o ABSOLUTE
    ../fplib/microlib/fpdiv.c                0x00000000   Number         0  ddiv.o ABSOLUTE
    ../fplib/microlib/fpepilogue.c           0x00000000   Number         0  depilogue.o ABSOLUTE
    ../fplib/microlib/fpfix.c                0x00000000   Number         0  dfixul.o ABSOLUTE
    ../fplib/microlib/fpmul.c                0x00000000   Number         0  dmul.o ABSOLUTE
    AS608pro.c                               0x00000000   Number         0  as608pro.o ABSOLUTE
    PN532_hal.c                              0x00000000   Number         0  pn532_hal.o ABSOLUTE
    __tagsym$$used.1                         0x00000000   Number         0  startup.o(.fixed_vectors)
    asr_pro.c                                0x00000000   Number         0  asr_pro.o ABSOLUTE
    bsp_clocks.c                             0x00000000   Number         0  bsp_clocks.o ABSOLUTE
    bsp_common.c                             0x00000000   Number         0  bsp_common.o ABSOLUTE
    bsp_delay.c                              0x00000000   Number         0  bsp_delay.o ABSOLUTE
    bsp_group_irq.c                          0x00000000   Number         0  bsp_group_irq.o ABSOLUTE
    bsp_guard.c                              0x00000000   Number         0  bsp_guard.o ABSOLUTE
    bsp_io.c                                 0x00000000   Number         0  bsp_io.o ABSOLUTE
    bsp_irq.c                                0x00000000   Number         0  bsp_irq.o ABSOLUTE
    bsp_macl.c                               0x00000000   Number         0  bsp_macl.o ABSOLUTE
    bsp_register_protection.c                0x00000000   Number         0  bsp_register_protection.o ABSOLUTE
    bsp_rom_registers.c                      0x00000000   Number         0  bsp_rom_registers.o ABSOLUTE
    bsp_sbrk.c                               0x00000000   Number         0  bsp_sbrk.o ABSOLUTE
    bsp_sdram.c                              0x00000000   Number         0  bsp_sdram.o ABSOLUTE
    bsp_security.c                           0x00000000   Number         0  bsp_security.o ABSOLUTE
    cdrcmple.s                               0x00000000   Number         0  cdrcmple.o ABSOLUTE
    common_data.c                            0x00000000   Number         0  common_data.o ABSOLUTE
    dc.s                                     0x00000000   Number         0  dc.o ABSOLUTE
    esp_connect.c                            0x00000000   Number         0  esp_connect.o ABSOLUTE
    fun.c                                    0x00000000   Number         0  fun.o ABSOLUTE
    hal_data.c                               0x00000000   Number         0  hal_data.o ABSOLUTE
    hal_entry.c                              0x00000000   Number         0  hal_entry.o ABSOLUTE
    k230_connect.c                           0x00000000   Number         0  k230_connect.o ABSOLUTE
    main.c                                   0x00000000   Number         0  main.o ABSOLUTE
    motor.c                                  0x00000000   Number         0  motor.o ABSOLUTE
    pin_data.c                               0x00000000   Number         0  pin_data.o ABSOLUTE
    pn532.c                                  0x00000000   Number         0  pn532.o ABSOLUTE
    r_gpt.c                                  0x00000000   Number         0  r_gpt.o ABSOLUTE
    r_iic_master.c                           0x00000000   Number         0  r_iic_master.o ABSOLUTE
    r_ioport.c                               0x00000000   Number         0  r_ioport.o ABSOLUTE
    r_sci_uart.c                             0x00000000   Number         0  r_sci_uart.o ABSOLUTE
    startup.c                                0x00000000   Number         0  startup.o ABSOLUTE
    system.c                                 0x00000000   Number         0  system.o ABSOLUTE
    tjc_usart_hmi.c                          0x00000000   Number         0  tjc_usart_hmi.o ABSOLUTE
    vector_data.c                            0x00000000   Number         0  vector_data.o ABSOLUTE
    __tagsym$$used.0                         0x00000040   Number         0  vector_data.o(.application_vectors)
    .text                                    0x000001c0   Section        0  memcpya.o(.text)
    .text                                    0x000001e4   Section        0  memseta.o(.text)
    .text                                    0x00000208   Section        0  strstr.o(.text)
    .text                                    0x0000022c   Section        0  strchr.o(.text)
    .text                                    0x00000240   Section        0  strlen.o(.text)
    .text                                    0x0000024e   Section        0  memcmp.o(.text)
    .text                                    0x00000268   Section        0  strcpy.o(.text)
    .text                                    0x0000027c   Section        0  __0sscanf.o(.text)
    .text                                    0x000002b4   Section        0  _scanf_int.o(.text)
    .text                                    0x00000400   Section        0  atoi.o(.text)
    .text                                    0x0000041a   Section        0  uldiv.o(.text)
    .text                                    0x0000047c   Section        0  _chval.o(.text)
    _scanf_char_input                        0x00000499   Thumb Code    12  scanf_char.o(.text)
    .text                                    0x00000498   Section        0  scanf_char.o(.text)
    .text                                    0x000004c0   Section        0  _sgetc.o(.text)
    .text                                    0x00000500   Section        0  strtol.o(.text)
    .text                                    0x00000570   Section        0  llshl.o(.text)
    .text                                    0x0000058e   Section        0  llushr.o(.text)
    .text                                    0x000005b0   Section        0  ctype_o.o(.text)
    .text                                    0x000005b8   Section        0  isspace_o.o(.text)
    .text                                    0x000005cc   Section        0  _scanf.o(.text)
    .text                                    0x000008f8   Section        0  _strtoul.o(.text)
    [Anonymous Symbol]                       0x00000996   Section        0  as608pro.o(.text.AS608_AddFR)
    [Anonymous Symbol]                       0x000009fc   Section        0  as608pro.o(.text.AS608_Check)
    [Anonymous Symbol]                       0x00000af4   Section        0  as608pro.o(.text.AS608_DeleteFR)
    [Anonymous Symbol]                       0x00000b12   Section        0  as608pro.o(.text.AS608_GetFRNumber)
    [Anonymous Symbol]                       0x00000b26   Section        0  as608pro.o(.text.AS608_Init)
    [Anonymous Symbol]                       0x00000b4c   Section        0  as608pro.o(.text.AS608_PressFR)
    [Anonymous Symbol]                       0x00000bba   Section        0  startup.o(.text.Default_Handler)
    [Anonymous Symbol]                       0x00000bc0   Section        0  tjc_usart_hmi.o(.text.HIM_connection)
    JudgeStr                                 0x000010b5   Thumb Code   132  as608pro.o(.text.JudgeStr)
    [Anonymous Symbol]                       0x000010b4   Section        0  as608pro.o(.text.JudgeStr)
    [Anonymous Symbol]                       0x00001138   Section        0  bsp_group_irq.o(.text.NMI_Handler)
    [Anonymous Symbol]                       0x0000117c   Section        0  pn532.o(.text.PN532_GetFirmVersion)
    [Anonymous Symbol]                       0x000011f4   Section        0  pn532_hal.o(.text.PN532_GetTick)
    [Anonymous Symbol]                       0x00001200   Section        0  pn532_hal.o(.text.PN532_I2C_Receive)
    [Anonymous Symbol]                       0x000012b8   Section        0  pn532_hal.o(.text.PN532_I2C_Transmit)
    [Anonymous Symbol]                       0x00001368   Section        0  pn532.o(.text.PN532_INIT)
    [Anonymous Symbol]                       0x000013c8   Section        0  pn532_hal.o(.text.PN532_Init_Hardware)
    [Anonymous Symbol]                       0x000013ee   Section        0  pn532.o(.text.PN532_ReadPassTarget)
    [Anonymous Symbol]                       0x00001490   Section        0  pn532.o(.text.PN532_SetSamConfig)
    [Anonymous Symbol]                       0x0000150c   Section        0  pn532.o(.text.PN532_WaitReady)
    [Anonymous Symbol]                       0x00001580   Section        0  pn532.o(.text.PN532_connect)
    [Anonymous Symbol]                       0x0000178c   Section        0  pn532.o(.text.PN532_parse_frame)
    [Anonymous Symbol]                       0x000017ea   Section        0  pn532.o(.text.PN532_recv)
    [Anonymous Symbol]                       0x0000180e   Section        0  pn532.o(.text.PN532_recv_ack)
    [Anonymous Symbol]                       0x00001850   Section        0  pn532.o(.text.PN532_recv_data)
    [Anonymous Symbol]                       0x00001880   Section        0  pn532.o(.text.PN532_send_data)
    [Anonymous Symbol]                       0x000018dc   Section        0  as608pro.o(.text.PS_DeletChar)
    [Anonymous Symbol]                       0x000019dc   Section        0  as608pro.o(.text.PS_Empty)
    [Anonymous Symbol]                       0x00001a58   Section        0  as608pro.o(.text.PS_GenChar)
    [Anonymous Symbol]                       0x00001af0   Section        0  as608pro.o(.text.PS_GetImage)
    [Anonymous Symbol]                       0x00001b6c   Section        0  as608pro.o(.text.PS_HandShake)
    [Anonymous Symbol]                       0x00001c34   Section        0  as608pro.o(.text.PS_HighSpeedSearch)
    [Anonymous Symbol]                       0x00001d6c   Section        0  as608pro.o(.text.PS_Match)
    [Anonymous Symbol]                       0x00001de8   Section        0  as608pro.o(.text.PS_ReadSysPara)
    [Anonymous Symbol]                       0x00001e84   Section        0  as608pro.o(.text.PS_RegModel)
    [Anonymous Symbol]                       0x00001f00   Section        0  as608pro.o(.text.PS_StoreChar)
    [Anonymous Symbol]                       0x00001fe0   Section        0  as608pro.o(.text.PS_ValidTempleteNum)
    [Anonymous Symbol]                       0x00002064   Section        0  bsp_clocks.o(.text.R_BSP_Init_RTC)
    [Anonymous Symbol]                       0x000020de   Section        0  bsp_register_protection.o(.text.R_BSP_RegisterProtectDisable)
    [Anonymous Symbol]                       0x0000212c   Section        0  bsp_register_protection.o(.text.R_BSP_RegisterProtectEnable)
    [Anonymous Symbol]                       0x0000217e   Section        0  bsp_delay.o(.text.R_BSP_SoftwareDelay)
    [Anonymous Symbol]                       0x000021c6   Section        0  bsp_clocks.o(.text.R_BSP_SubClockStabilizeWaitAfterReset)
    [Anonymous Symbol]                       0x000021c8   Section        0  hal_entry.o(.text.R_BSP_WarmStart)
    [Anonymous Symbol]                       0x000021e2   Section        0  r_gpt.o(.text.R_GPT_CallbackSet)
    [Anonymous Symbol]                       0x000021f0   Section        0  r_gpt.o(.text.R_GPT_Close)
    [Anonymous Symbol]                       0x00002284   Section        0  r_gpt.o(.text.R_GPT_CompareMatchSet)
    [Anonymous Symbol]                       0x00002292   Section        0  r_gpt.o(.text.R_GPT_Disable)
    [Anonymous Symbol]                       0x000022b0   Section        0  r_gpt.o(.text.R_GPT_DutyCycleSet)
    [Anonymous Symbol]                       0x00002354   Section        0  r_gpt.o(.text.R_GPT_Enable)
    [Anonymous Symbol]                       0x0000238c   Section        0  r_gpt.o(.text.R_GPT_InfoGet)
    [Anonymous Symbol]                       0x000023c8   Section        0  r_gpt.o(.text.R_GPT_Open)
    [Anonymous Symbol]                       0x0000260c   Section        0  r_gpt.o(.text.R_GPT_PeriodSet)
    [Anonymous Symbol]                       0x00002644   Section        0  r_gpt.o(.text.R_GPT_Reset)
    [Anonymous Symbol]                       0x0000264e   Section        0  r_gpt.o(.text.R_GPT_Start)
    [Anonymous Symbol]                       0x00002658   Section        0  r_gpt.o(.text.R_GPT_StatusGet)
    [Anonymous Symbol]                       0x0000266a   Section        0  r_gpt.o(.text.R_GPT_Stop)
    [Anonymous Symbol]                       0x00002674   Section        0  r_iic_master.o(.text.R_IIC_MASTER_Abort)
    [Anonymous Symbol]                       0x000026a6   Section        0  r_iic_master.o(.text.R_IIC_MASTER_CallbackSet)
    [Anonymous Symbol]                       0x000026b4   Section        0  r_iic_master.o(.text.R_IIC_MASTER_Close)
    [Anonymous Symbol]                       0x00002784   Section        0  r_iic_master.o(.text.R_IIC_MASTER_Open)
    [Anonymous Symbol]                       0x00002804   Section        0  r_iic_master.o(.text.R_IIC_MASTER_Read)
    [Anonymous Symbol]                       0x00002810   Section        0  r_iic_master.o(.text.R_IIC_MASTER_SlaveAddressSet)
    [Anonymous Symbol]                       0x0000281a   Section        0  r_iic_master.o(.text.R_IIC_MASTER_StatusGet)
    [Anonymous Symbol]                       0x00002832   Section        0  r_iic_master.o(.text.R_IIC_MASTER_Write)
    [Anonymous Symbol]                       0x0000283e   Section        0  r_ioport.o(.text.R_IOPORT_Close)
    [Anonymous Symbol]                       0x00002848   Section        0  r_ioport.o(.text.R_IOPORT_Open)
    [Anonymous Symbol]                       0x0000285e   Section        0  r_ioport.o(.text.R_IOPORT_PinCfg)
    [Anonymous Symbol]                       0x0000290c   Section        0  r_ioport.o(.text.R_IOPORT_PinEventInputRead)
    [Anonymous Symbol]                       0x00002934   Section        0  r_ioport.o(.text.R_IOPORT_PinEventOutputWrite)
    [Anonymous Symbol]                       0x00002970   Section        0  r_ioport.o(.text.R_IOPORT_PinRead)
    [Anonymous Symbol]                       0x00002992   Section        0  r_ioport.o(.text.R_IOPORT_PinWrite)
    [Anonymous Symbol]                       0x000029b6   Section        0  r_ioport.o(.text.R_IOPORT_PinsCfg)
    [Anonymous Symbol]                       0x000029c2   Section        0  r_ioport.o(.text.R_IOPORT_PortDirectionSet)
    [Anonymous Symbol]                       0x000029ee   Section        0  r_ioport.o(.text.R_IOPORT_PortEventInputRead)
    [Anonymous Symbol]                       0x00002a06   Section        0  r_ioport.o(.text.R_IOPORT_PortEventOutputWrite)
    [Anonymous Symbol]                       0x00002a26   Section        0  r_ioport.o(.text.R_IOPORT_PortRead)
    [Anonymous Symbol]                       0x00002a3c   Section        0  r_ioport.o(.text.R_IOPORT_PortWrite)
    [Anonymous Symbol]                       0x00002a5c   Section        0  r_sci_uart.o(.text.R_SCI_UART_Abort)
    [Anonymous Symbol]                       0x00002a7e   Section        0  r_sci_uart.o(.text.R_SCI_UART_BaudSet)
    [Anonymous Symbol]                       0x00002ae6   Section        0  r_sci_uart.o(.text.R_SCI_UART_CallbackSet)
    [Anonymous Symbol]                       0x00002af4   Section        0  r_sci_uart.o(.text.R_SCI_UART_Close)
    [Anonymous Symbol]                       0x00002b9a   Section        0  r_sci_uart.o(.text.R_SCI_UART_InfoGet)
    [Anonymous Symbol]                       0x00002ba6   Section        0  r_sci_uart.o(.text.R_SCI_UART_Open)
    [Anonymous Symbol]                       0x00002ee0   Section        0  r_sci_uart.o(.text.R_SCI_UART_Read)
    [Anonymous Symbol]                       0x00002eea   Section        0  r_sci_uart.o(.text.R_SCI_UART_ReadStop)
    [Anonymous Symbol]                       0x00002ef8   Section        0  r_sci_uart.o(.text.R_SCI_UART_Write)
    [Anonymous Symbol]                       0x00002f44   Section        0  startup.o(.text.Reset_Handler)
    SendAddr                                 0x00002f51   Thumb Code   150  as608pro.o(.text.SendAddr)
    [Anonymous Symbol]                       0x00002f50   Section        0  as608pro.o(.text.SendAddr)
    SendCheck                                0x00002fe9   Thumb Code    86  as608pro.o(.text.SendCheck)
    [Anonymous Symbol]                       0x00002fe8   Section        0  as608pro.o(.text.SendCheck)
    [Anonymous Symbol]                       0x00003040   Section        0  as608pro.o(.text.SendHead)
    SendLength                               0x00003099   Thumb Code    86  as608pro.o(.text.SendLength)
    [Anonymous Symbol]                       0x00003098   Section        0  as608pro.o(.text.SendLength)
    [Anonymous Symbol]                       0x000030ee   Section        0  bsp_clocks.o(.text.SystemCoreClockUpdate)
    [Anonymous Symbol]                       0x0000311c   Section        0  system.o(.text.SystemInit)
    [Anonymous Symbol]                       0x00003210   Section        0  tjc_usart_hmi.o(.text.UART_HIM_Init)
    [Anonymous Symbol]                       0x00003230   Section        0  bsp_clocks.o(.text.bsp_clock_init)
    [Anonymous Symbol]                       0x0000336c   Section        0  bsp_common.o(.text.bsp_init_internal)
    [Anonymous Symbol]                       0x00003370   Section        0  bsp_irq.o(.text.bsp_irq_cfg)
    sw_delay_loop                            0x00003406   Number         0  bsp_delay.o(.text.bsp_prv_software_delay_loop)
    [Anonymous Symbol]                       0x00003406   Section        0  bsp_delay.o(.text.bsp_prv_software_delay_loop)
    bsp_vbatt_init                           0x00003411   Thumb Code   204  r_ioport.o(.text.bsp_vbatt_init)
    [Anonymous Symbol]                       0x00003410   Section        0  r_ioport.o(.text.bsp_vbatt_init)
    g_vbatt_pins_input                       0x000034dc   Number         0  r_ioport.o(.text.bsp_vbatt_init)
    [Anonymous Symbol]                       0x000034e8   Section        0  esp_connect.o(.text.dakai_clock_display)
    [Anonymous Symbol]                       0x0000353c   Section        0  as608pro.o(.text.finger_addtion)
    [Anonymous Symbol]                       0x00003674   Section        0  as608pro.o(.text.finger_search)
    [Anonymous Symbol]                       0x000037c8   Section        0  fun.o(.text.fputc)
    [Anonymous Symbol]                       0x000037fc   Section        0  pn532_hal.o(.text.g_system_tick)
    gpt_calculate_duty_cycle                 0x0000380d   Thumb Code    94  r_gpt.o(.text.gpt_calculate_duty_cycle)
    [Anonymous Symbol]                       0x0000380c   Section        0  r_gpt.o(.text.gpt_calculate_duty_cycle)
    [Anonymous Symbol]                       0x0000386a   Section        0  r_gpt.o(.text.gpt_counter_overflow_isr)
    [Anonymous Symbol]                       0x00003918   Section        0  hal_entry.o(.text.hal_entry)
    [Anonymous Symbol]                       0x000039b0   Section        0  pn532_hal.o(.text.i2c_master_callback)
    [Anonymous Symbol]                       0x000039ee   Section        0  r_iic_master.o(.text.iic_master_eri_isr)
    iic_master_notify                        0x00003b37   Thumb Code    54  r_iic_master.o(.text.iic_master_notify)
    [Anonymous Symbol]                       0x00003b36   Section        0  r_iic_master.o(.text.iic_master_notify)
    iic_master_open_hw_master                0x00003b6d   Thumb Code   370  r_iic_master.o(.text.iic_master_open_hw_master)
    [Anonymous Symbol]                       0x00003b6c   Section        0  r_iic_master.o(.text.iic_master_open_hw_master)
    iic_master_read_write                    0x00003ce1   Thumb Code   330  r_iic_master.o(.text.iic_master_read_write)
    [Anonymous Symbol]                       0x00003ce0   Section        0  r_iic_master.o(.text.iic_master_read_write)
    [Anonymous Symbol]                       0x00003e2a   Section        0  r_iic_master.o(.text.iic_master_rxi_isr)
    [Anonymous Symbol]                       0x00003fb8   Section        0  r_iic_master.o(.text.iic_master_tei_isr)
    [Anonymous Symbol]                       0x00004098   Section        0  r_iic_master.o(.text.iic_master_txi_isr)
    [Anonymous Symbol]                       0x000041b4   Section        0  fun.o(.text.key_scan)
    [Anonymous Symbol]                       0x000042a4   Section        0  main.o(.text.main)
    [Anonymous Symbol]                       0x000042ae   Section        0  motor.o(.text.motor_init)
    [Anonymous Symbol]                       0x000043d8   Section        0  motor.o(.text.motor_task)
    [Anonymous Symbol]                       0x000044f8   Section        0  esp_connect.o(.text.process_uart2_data)
    [Anonymous Symbol]                       0x00004620   Section        0  k230_connect.o(.text.process_uart8_data)
    r_gpt_enable_irq                         0x000046fd   Thumb Code    88  r_gpt.o(.text.r_gpt_enable_irq)
    [Anonymous Symbol]                       0x000046fc   Section        0  r_gpt.o(.text.r_gpt_enable_irq)
    r_ioport_pins_config                     0x00004755   Thumb Code   192  r_ioport.o(.text.r_ioport_pins_config)
    [Anonymous Symbol]                       0x00004754   Section        0  r_ioport.o(.text.r_ioport_pins_config)
    r_sci_uart_call_callback                 0x00004815   Thumb Code    64  r_sci_uart.o(.text.r_sci_uart_call_callback)
    [Anonymous Symbol]                       0x00004814   Section        0  r_sci_uart.o(.text.r_sci_uart_call_callback)
    [Anonymous Symbol]                       0x00004854   Section        0  r_sci_uart.o(.text.sci_uart_eri_isr)
    [Anonymous Symbol]                       0x000048be   Section        0  r_sci_uart.o(.text.sci_uart_rxi_isr)
    [Anonymous Symbol]                       0x00004946   Section        0  r_sci_uart.o(.text.sci_uart_tei_isr)
    [Anonymous Symbol]                       0x00004990   Section        0  r_sci_uart.o(.text.sci_uart_txi_isr)
    [Anonymous Symbol]                       0x00004a1c   Section        0  esp_connect.o(.text.send_wifi_to_esp32)
    [Anonymous Symbol]                       0x00004a68   Section        0  as608pro.o(.text.timeout_search_1ms)
    [Anonymous Symbol]                       0x00004a92   Section        0  fun.o(.text.timer_1ms_callback)
    [Anonymous Symbol]                       0x00004b02   Section        0  esp_connect.o(.text.timer_callback)
    [Anonymous Symbol]                       0x00004b60   Section        0  tjc_usart_hmi.o(.text.tjc_send_string)
    [Anonymous Symbol]                       0x00004c04   Section        0  esp_connect.o(.text.uart2_callback)
    [Anonymous Symbol]                       0x00004d06   Section        0  esp_connect.o(.text.uart2_init)
    [Anonymous Symbol]                       0x00004d6c   Section        0  esp_connect.o(.text.uart2_send_string)
    [Anonymous Symbol]                       0x00004da0   Section        0  esp_connect.o(.text.uart2_send_value)
    [Anonymous Symbol]                       0x00004dc4   Section        0  as608pro.o(.text.uart3_callback)
    [Anonymous Symbol]                       0x00004e3e   Section        0  tjc_usart_hmi.o(.text.uart5_callback)
    [Anonymous Symbol]                       0x00004eba   Section        0  fun.o(.text.uart7_callback)
    [Anonymous Symbol]                       0x00004ef4   Section        0  k230_connect.o(.text.uart8_callback)
    [Anonymous Symbol]                       0x00004faa   Section        0  k230_connect.o(.text.uart8_init)
    [Anonymous Symbol]                       0x00004fdc   Section        0  k230_connect.o(.text.uart8_send_value)
    [Anonymous Symbol]                       0x00005024   Section        0  asr_pro.o(.text.uart9_callback)
    [Anonymous Symbol]                       0x000050c4   Section        0  asr_pro.o(.text.uart9_init)
    [Anonymous Symbol]                       0x000050d4   Section        0  asr_pro.o(.text.uart9_send_value)
    [Anonymous Symbol]                       0x0000511c   Section        0  esp_connect.o(.text.update_clock_display)
    i.__0printf$8                            0x00005178   Section        0  printf8.o(i.__0printf$8)
    i.__0snprintf$8                          0x00005198   Section        0  printf8.o(i.__0snprintf$8)
    i.__0sprintf$8                           0x000051cc   Section        0  printf8.o(i.__0sprintf$8)
    i.__aeabi_errno_addr                     0x000051f4   Section        0  errno.o(i.__aeabi_errno_addr)
    _printf_core                             0x000051fd   Thumb Code   996  printf8.o(i._printf_core)
    i._printf_core                           0x000051fc   Section        0  printf8.o(i._printf_core)
    _printf_post_padding                     0x0000560d   Thumb Code    36  printf8.o(i._printf_post_padding)
    i._printf_post_padding                   0x0000560c   Section        0  printf8.o(i._printf_post_padding)
    _printf_pre_padding                      0x00005631   Thumb Code    46  printf8.o(i._printf_pre_padding)
    i._printf_pre_padding                    0x00005630   Section        0  printf8.o(i._printf_pre_padding)
    _snputc                                  0x0000565f   Thumb Code    22  printf8.o(i._snputc)
    i._snputc                                0x0000565e   Section        0  printf8.o(i._snputc)
    _sputc                                   0x00005675   Thumb Code    10  printf8.o(i._sputc)
    i._sputc                                 0x00005674   Section        0  printf8.o(i._sputc)
    i.puts                                   0x00005680   Section        0  puts.o(i.puts)
    .constdata                               0x000056a4   Section      129  ctype_o.o(.constdata)
    table                                    0x00005728   Data           4  ctype_o.o(.constdata)
    .constdata                               0x00005728   Section        4  ctype_o.o(.constdata)
    g_prcr_masks                             0x0000572c   Data           8  bsp_register_protection.o(.rodata.cst8)
    [Anonymous Symbol]                       0x0000572c   Section        0  bsp_register_protection.o(.rodata.cst8)
    __tagsym$$used.1                         0x00005f00   Number         0  bsp_security.o(.rodata.gp_start_of_nonsecure_callable_flash)
    __tagsym$$used.4                         0x00005f04   Number         0  bsp_security.o(.rodata.gp_start_of_nonsecure_callable_ram)
    __tagsym$$used.6                         0x00005f08   Number         0  bsp_security.o(.rodata.gp_start_of_nonsecure_data_flash)
    __tagsym$$used.0                         0x00005f0c   Number         0  bsp_security.o(.rodata.gp_start_of_nonsecure_flash)
    __tagsym$$used.3                         0x00005f10   Number         0  bsp_security.o(.rodata.gp_start_of_nonsecure_ram)
    __tagsym$$used.7                         0x00005f14   Number         0  bsp_security.o(.rodata.gp_start_of_secure_data_flash)
    __tagsym$$used.2                         0x00005f18   Number         0  bsp_security.o(.rodata.gp_start_of_secure_flash)
    __tagsym$$used.5                         0x00005f1c   Number         0  bsp_security.o(.rodata.gp_start_of_secure_ram)
    .Lstr.20                                 0x00005f26   Data          41  as608pro.o(.rodata.str1.1)
    [Anonymous Symbol]                       0x00005f26   Section        0  as608pro.o(.rodata.str1.1)
    .Lstr.22                                 0x00005f4f   Data          46  as608pro.o(.rodata.str1.1)
    .Lstr.21                                 0x00005f7d   Data          48  as608pro.o(.rodata.str1.1)
    .Lstr                                    0x00005fad   Data          59  as608pro.o(.rodata.str1.1)
    .L.str.16                                0x00005fe8   Data          23  as608pro.o(.rodata.str1.1)
    .Lstr.11                                 0x00005fff   Data          14  tjc_usart_hmi.o(.rodata.str1.1)
    [Anonymous Symbol]                       0x00005fff   Section        0  tjc_usart_hmi.o(.rodata.str1.1)
    .L.str.7                                 0x0000600d   Data          12  tjc_usart_hmi.o(.rodata.str1.1)
    .L.str.2                                 0x00006019   Data          24  esp_connect.o(.rodata.str1.1)
    [Anonymous Symbol]                       0x00006019   Section        0  esp_connect.o(.rodata.str1.1)
    __tagsym$$used.0                         0x00006034   Number         0  bsp_common.o(.version)
    g_fsp_version                            0x00006034   Data           4  bsp_common.o(.version)
    [Anonymous Symbol]                       0x00006034   Section        0  bsp_common.o(.version)
    __tagsym$$used.1                         0x00006038   Number         0  bsp_common.o(.version)
    g_fsp_version_string                     0x00006038   Data           6  bsp_common.o(.version)
    [Anonymous Symbol]                       0x00006038   Section        0  bsp_common.o(.version)
    __tagsym$$used.2                         0x0000603e   Number         0  bsp_common.o(.version)
    g_fsp_version_build_string               0x0000603e   Data          68  bsp_common.o(.version)
    [Anonymous Symbol]                       0x0000603e   Section        0  bsp_common.o(.version)
    __tagsym$$used.0                         0x0100a100   Number         0  bsp_rom_registers.o(.option_setting_ofs0)
    g_bsp_rom_ofs0                           0x0100a100   Data           4  bsp_rom_registers.o(.option_setting_ofs0)
    [Anonymous Symbol]                       0x0100a100   Section        0  bsp_rom_registers.o(.option_setting_ofs0)
    __tagsym$$used.1                         0x0100a110   Number         0  bsp_rom_registers.o(.option_setting_dualsel)
    g_bsp_rom_dualsel                        0x0100a110   Data           4  bsp_rom_registers.o(.option_setting_dualsel)
    [Anonymous Symbol]                       0x0100a110   Section        0  bsp_rom_registers.o(.option_setting_dualsel)
    __tagsym$$used.2                         0x0100a134   Number         0  bsp_rom_registers.o(.option_setting_sas)
    g_bsp_rom_sas                            0x0100a134   Data           4  bsp_rom_registers.o(.option_setting_sas)
    [Anonymous Symbol]                       0x0100a134   Section        0  bsp_rom_registers.o(.option_setting_sas)
    __tagsym$$used.3                         0x0100a200   Number         0  bsp_rom_registers.o(.option_setting_ofs1_sec)
    g_bsp_rom_ofs1_sec                       0x0100a200   Data           4  bsp_rom_registers.o(.option_setting_ofs1_sec)
    [Anonymous Symbol]                       0x0100a200   Section        0  bsp_rom_registers.o(.option_setting_ofs1_sec)
    __tagsym$$used.4                         0x0100a210   Number         0  bsp_rom_registers.o(.option_setting_banksel_sec)
    g_bsp_rom_banksel_sec                    0x0100a210   Data           4  bsp_rom_registers.o(.option_setting_banksel_sec)
    [Anonymous Symbol]                       0x0100a210   Section        0  bsp_rom_registers.o(.option_setting_banksel_sec)
    __tagsym$$used.5                         0x0100a240   Number         0  bsp_rom_registers.o(.option_setting_bps_sec0)
    g_bsp_rom_bps_sec0                       0x0100a240   Data           4  bsp_rom_registers.o(.option_setting_bps_sec0)
    [Anonymous Symbol]                       0x0100a240   Section        0  bsp_rom_registers.o(.option_setting_bps_sec0)
    __tagsym$$used.6                         0x0100a244   Number         0  bsp_rom_registers.o(.option_setting_bps_sec1)
    g_bsp_rom_bps_sec1                       0x0100a244   Data           4  bsp_rom_registers.o(.option_setting_bps_sec1)
    [Anonymous Symbol]                       0x0100a244   Section        0  bsp_rom_registers.o(.option_setting_bps_sec1)
    __tagsym$$used.7                         0x0100a248   Number         0  bsp_rom_registers.o(.option_setting_bps_sec2)
    g_bsp_rom_bps_sec2                       0x0100a248   Data           4  bsp_rom_registers.o(.option_setting_bps_sec2)
    [Anonymous Symbol]                       0x0100a248   Section        0  bsp_rom_registers.o(.option_setting_bps_sec2)
    __tagsym$$used.8                         0x0100a24c   Number         0  bsp_rom_registers.o(.option_setting_bps_sec3)
    g_bsp_rom_bps_sec3                       0x0100a24c   Data           4  bsp_rom_registers.o(.option_setting_bps_sec3)
    [Anonymous Symbol]                       0x0100a24c   Section        0  bsp_rom_registers.o(.option_setting_bps_sec3)
    __tagsym$$used.9                         0x0100a260   Number         0  bsp_rom_registers.o(.option_setting_pbps_sec0)
    g_bsp_rom_pbps_sec0                      0x0100a260   Data           4  bsp_rom_registers.o(.option_setting_pbps_sec0)
    [Anonymous Symbol]                       0x0100a260   Section        0  bsp_rom_registers.o(.option_setting_pbps_sec0)
    __tagsym$$used.10                        0x0100a264   Number         0  bsp_rom_registers.o(.option_setting_pbps_sec1)
    g_bsp_rom_pbps_sec1                      0x0100a264   Data           4  bsp_rom_registers.o(.option_setting_pbps_sec1)
    [Anonymous Symbol]                       0x0100a264   Section        0  bsp_rom_registers.o(.option_setting_pbps_sec1)
    __tagsym$$used.11                        0x0100a268   Number         0  bsp_rom_registers.o(.option_setting_pbps_sec2)
    g_bsp_rom_pbps_sec2                      0x0100a268   Data           4  bsp_rom_registers.o(.option_setting_pbps_sec2)
    [Anonymous Symbol]                       0x0100a268   Section        0  bsp_rom_registers.o(.option_setting_pbps_sec2)
    __tagsym$$used.12                        0x0100a26c   Number         0  bsp_rom_registers.o(.option_setting_pbps_sec3)
    g_bsp_rom_pbps_sec3                      0x0100a26c   Data           4  bsp_rom_registers.o(.option_setting_pbps_sec3)
    [Anonymous Symbol]                       0x0100a26c   Section        0  bsp_rom_registers.o(.option_setting_pbps_sec3)
    __tagsym$$used.13                        0x0100a280   Number         0  bsp_rom_registers.o(.option_setting_ofs1_sel)
    g_bsp_rom_ofs1_sel                       0x0100a280   Data           4  bsp_rom_registers.o(.option_setting_ofs1_sel)
    [Anonymous Symbol]                       0x0100a280   Section        0  bsp_rom_registers.o(.option_setting_ofs1_sel)
    __tagsym$$used.14                        0x0100a290   Number         0  bsp_rom_registers.o(.option_setting_banksel_sel)
    g_bsp_rom_banksel_sel                    0x0100a290   Data           4  bsp_rom_registers.o(.option_setting_banksel_sel)
    [Anonymous Symbol]                       0x0100a290   Section        0  bsp_rom_registers.o(.option_setting_banksel_sel)
    __tagsym$$used.15                        0x0100a2c0   Number         0  bsp_rom_registers.o(.option_setting_bps_sel0)
    g_bsp_rom_bps_sel0                       0x0100a2c0   Data           4  bsp_rom_registers.o(.option_setting_bps_sel0)
    [Anonymous Symbol]                       0x0100a2c0   Section        0  bsp_rom_registers.o(.option_setting_bps_sel0)
    __tagsym$$used.16                        0x0100a2c4   Number         0  bsp_rom_registers.o(.option_setting_bps_sel1)
    g_bsp_rom_bps_sel1                       0x0100a2c4   Data           4  bsp_rom_registers.o(.option_setting_bps_sel1)
    [Anonymous Symbol]                       0x0100a2c4   Section        0  bsp_rom_registers.o(.option_setting_bps_sel1)
    __tagsym$$used.17                        0x0100a2c8   Number         0  bsp_rom_registers.o(.option_setting_bps_sel2)
    g_bsp_rom_bps_sel2                       0x0100a2c8   Data           4  bsp_rom_registers.o(.option_setting_bps_sel2)
    [Anonymous Symbol]                       0x0100a2c8   Section        0  bsp_rom_registers.o(.option_setting_bps_sel2)
    __tagsym$$used.18                        0x0100a2cc   Number         0  bsp_rom_registers.o(.option_setting_bps_sel3)
    g_bsp_rom_bps_sel3                       0x0100a2cc   Data           4  bsp_rom_registers.o(.option_setting_bps_sel3)
    [Anonymous Symbol]                       0x0100a2cc   Section        0  bsp_rom_registers.o(.option_setting_bps_sel3)
    .data                                    0x20000000   Section        4  stdout.o(.data)
    _errno                                   0x20000004   Data           4  errno.o(.data)
    .data                                    0x20000004   Section        4  errno.o(.data)
    g_received_value                         0x2000008c   Data           2  asr_pro.o(.data.g_received_value)
    [Anonymous Symbol]                       0x2000008c   Section        0  asr_pro.o(.data.g_received_value)
    key_scan.stable_level                    0x200000a8   Data           4  fun.o(.data.key_scan.stable_level)
    [Anonymous Symbol]                       0x200000a8   Section        0  fun.o(.data.key_scan.stable_level)
    update_clock_display.last_second         0x200000b1   Data           1  esp_connect.o(.data.update_clock_display.last_second)
    [Anonymous Symbol]                       0x200000b1   Section        0  esp_connect.o(.data.update_clock_display.last_second)
    AS608_PressFR.press_state                0x200000c0   Data           1  as608pro.o(.bss.AS608_PressFR.press_state)
    [Anonymous Symbol]                       0x200000c0   Section        0  as608pro.o(.bss.AS608_PressFR.press_state)
    PN532_recv_buf                           0x20000254   Data          64  pn532.o(.bss.PN532_recv_buf)
    [Anonymous Symbol]                       0x20000254   Section        0  pn532.o(.bss.PN532_recv_buf)
    PN532_send_buf                           0x20000294   Data          64  pn532.o(.bss.PN532_send_buf)
    [Anonymous Symbol]                       0x20000294   Section        0  pn532.o(.bss.PN532_send_buf)
    g_clock_running                          0x20000324   Data           1  esp_connect.o(.bss.g_clock_running)
    [Anonymous Symbol]                       0x20000324   Section        0  esp_connect.o(.bss.g_clock_running)
    g_current_time                           0x20000325   Data           3  esp_connect.o(.bss.g_current_time)
    [Anonymous Symbol]                       0x20000325   Section        0  esp_connect.o(.bss.g_current_time)
    g_data_valid                             0x20000328   Data           1  esp_connect.o(.bss.g_data_valid)
    [Anonymous Symbol]                       0x20000328   Section        0  esp_connect.o(.bss.g_data_valid)
    g_i2c_last_error                         0x2000036c   Data           4  pn532_hal.o(.bss.g_i2c_last_error)
    [Anonymous Symbol]                       0x2000036c   Section        0  pn532_hal.o(.bss.g_i2c_last_error)
    g_i2c_rx_complete                        0x20000370   Data           1  pn532_hal.o(.bss.g_i2c_rx_complete)
    [Anonymous Symbol]                       0x20000370   Section        0  pn532_hal.o(.bss.g_i2c_rx_complete)
    g_i2c_tx_complete                        0x20000371   Data           1  pn532_hal.o(.bss.g_i2c_tx_complete)
    [Anonymous Symbol]                       0x20000371   Section        0  pn532_hal.o(.bss.g_i2c_tx_complete)
    g_received_time                          0x20000388   Data          16  esp_connect.o(.bss.g_received_time)
    [Anonymous Symbol]                       0x20000388   Section        0  esp_connect.o(.bss.g_received_time)
    g_received_value                         0x20000398   Data           2  k230_connect.o(.bss.g_received_value)
    [Anonymous Symbol]                       0x20000398   Section        0  k230_connect.o(.bss.g_received_value)
    g_received_value                         0x2000039a   Data           2  esp_connect.o(.bss.g_received_value)
    [Anonymous Symbol]                       0x2000039a   Section        0  esp_connect.o(.bss.g_received_value)
    g_system_tick_ms                         0x200003b4   Data           4  pn532_hal.o(.bss.g_system_tick_ms)
    [Anonymous Symbol]                       0x200003b4   Section        0  pn532_hal.o(.bss.g_system_tick_ms)
    g_time_valid                             0x200003b8   Data           1  esp_connect.o(.bss.g_time_valid)
    [Anonymous Symbol]                       0x200003b8   Section        0  esp_connect.o(.bss.g_time_valid)
    g_timer_count                            0x2000041c   Data           4  esp_connect.o(.bss.g_timer_count)
    [Anonymous Symbol]                       0x2000041c   Section        0  esp_connect.o(.bss.g_timer_count)
    g_uart2_tx_complete                      0x20000450   Data           4  esp_connect.o(.bss.g_uart2_tx_complete)
    [Anonymous Symbol]                       0x20000450   Section        0  esp_connect.o(.bss.g_uart2_tx_complete)
    g_uart3_rx_complete                      0x20000484   Data           1  as608pro.o(.bss.g_uart3_rx_complete)
    [Anonymous Symbol]                       0x20000484   Section        0  as608pro.o(.bss.g_uart3_rx_complete)
    g_uart3_tx_complete                      0x20000485   Data           1  as608pro.o(.bss.g_uart3_tx_complete)
    [Anonymous Symbol]                       0x20000485   Section        0  as608pro.o(.bss.g_uart3_tx_complete)
    g_uart5_rx_complete                      0x200004b8   Data           4  tjc_usart_hmi.o(.bss.g_uart5_rx_complete)
    [Anonymous Symbol]                       0x200004b8   Section        0  tjc_usart_hmi.o(.bss.g_uart5_rx_complete)
    g_uart5_tx_complete                      0x200004bc   Data           4  tjc_usart_hmi.o(.bss.g_uart5_tx_complete)
    [Anonymous Symbol]                       0x200004bc   Section        0  tjc_usart_hmi.o(.bss.g_uart5_tx_complete)
    g_uart7_rx_complete                      0x200004f0   Data           4  fun.o(.bss.g_uart7_rx_complete)
    [Anonymous Symbol]                       0x200004f0   Section        0  fun.o(.bss.g_uart7_rx_complete)
    g_uart7_tx_complete                      0x200004f4   Data           4  fun.o(.bss.g_uart7_tx_complete)
    [Anonymous Symbol]                       0x200004f4   Section        0  fun.o(.bss.g_uart7_tx_complete)
    g_uart8_tx_complete                      0x20000528   Data           4  k230_connect.o(.bss.g_uart8_tx_complete)
    [Anonymous Symbol]                       0x20000528   Section        0  k230_connect.o(.bss.g_uart8_tx_complete)
    g_uart9_tx_complete                      0x2000055c   Data           4  asr_pro.o(.bss.g_uart9_tx_complete)
    [Anonymous Symbol]                       0x2000055c   Section        0  asr_pro.o(.bss.g_uart9_tx_complete)
    key_scan.debounce_cnt                    0x200006e2   Data           1  fun.o(.bss.key_scan.debounce_cnt)
    [Anonymous Symbol]                       0x200006e2   Section        0  fun.o(.bss.key_scan.debounce_cnt)
    last_g_received_value                    0x200006e8   Data           2  k230_connect.o(.bss.last_g_received_value)
    [Anonymous Symbol]                       0x200006e8   Section        0  k230_connect.o(.bss.last_g_received_value)
    rx_timeout_counter                       0x200008f0   Data           4  as608pro.o(.bss.rx_timeout_counter)
    [Anonymous Symbol]                       0x200008f0   Section        0  as608pro.o(.bss.rx_timeout_counter)
    timer1_info                              0x20000aa4   Data          12  motor.o(.bss.timer1_info)
    [Anonymous Symbol]                       0x20000aa4   Section        0  motor.o(.bss.timer1_info)
    timer2_info                              0x20000ab0   Data          12  motor.o(.bss.timer2_info)
    [Anonymous Symbol]                       0x20000ab0   Section        0  motor.o(.bss.timer2_info)
    uart2_frame_ready                        0x20000abc   Data           1  esp_connect.o(.bss.uart2_frame_ready)
    [Anonymous Symbol]                       0x20000abc   Section        0  esp_connect.o(.bss.uart2_frame_ready)
    uart2_rx_buffer                          0x20000ac0   Data          64  esp_connect.o(.bss.uart2_rx_buffer)
    [Anonymous Symbol]                       0x20000ac0   Section        0  esp_connect.o(.bss.uart2_rx_buffer)
    uart2_rx_index                           0x20000b00   Data           1  esp_connect.o(.bss.uart2_rx_index)
    [Anonymous Symbol]                       0x20000b00   Section        0  esp_connect.o(.bss.uart2_rx_index)
    uart8_rx_buffer                          0x20000b04   Data          10  k230_connect.o(.bss.uart8_rx_buffer)
    [Anonymous Symbol]                       0x20000b04   Section        0  k230_connect.o(.bss.uart8_rx_buffer)
    uart8_rx_index                           0x20000b0e   Data           1  k230_connect.o(.bss.uart8_rx_index)
    [Anonymous Symbol]                       0x20000b0e   Section        0  k230_connect.o(.bss.uart8_rx_index)
    uart9_rx_buffer                          0x20000b0f   Data          10  asr_pro.o(.bss.uart9_rx_buffer)
    [Anonymous Symbol]                       0x20000b0f   Section        0  asr_pro.o(.bss.uart9_rx_buffer)
    uart9_rx_index                           0x20000b19   Data           1  asr_pro.o(.bss.uart9_rx_index)
    [Anonymous Symbol]                       0x20000b19   Section        0  asr_pro.o(.bss.uart9_rx_index)
    wifi_data_type                           0x20000b2b   Data           1  tjc_usart_hmi.o(.bss.wifi_data_type)
    [Anonymous Symbol]                       0x20000b2b   Section        0  tjc_usart_hmi.o(.bss.wifi_data_type)
    wifi_frame_received                      0x20000b2c   Data           1  tjc_usart_hmi.o(.bss.wifi_frame_received)
    [Anonymous Symbol]                       0x20000b2c   Section        0  tjc_usart_hmi.o(.bss.wifi_frame_received)
    wifi_pwd                                 0x20000b30   Data          64  tjc_usart_hmi.o(.bss.wifi_pwd)
    [Anonymous Symbol]                       0x20000b30   Section        0  tjc_usart_hmi.o(.bss.wifi_pwd)
    wifi_pwd_len                             0x20000b70   Data           1  tjc_usart_hmi.o(.bss.wifi_pwd_len)
    [Anonymous Symbol]                       0x20000b70   Section        0  tjc_usart_hmi.o(.bss.wifi_pwd_len)
    wifi_ssid                                0x20000b74   Data          32  tjc_usart_hmi.o(.bss.wifi_ssid)
    [Anonymous Symbol]                       0x20000b74   Section        0  tjc_usart_hmi.o(.bss.wifi_ssid)
    wifi_ssid_len                            0x20000b94   Data           1  tjc_usart_hmi.o(.bss.wifi_ssid_len)
    [Anonymous Symbol]                       0x20000b94   Section        0  tjc_usart_hmi.o(.bss.wifi_ssid_len)
    __tagsym$$used.0                         0x20000b98   Number         0  bsp_clocks.o(.bss.noinit)
    g_clock_freq                             0x20000b98   Data          28  bsp_clocks.o(.bss.noinit)
    [Anonymous Symbol]                       0x20000b98   Section        0  bsp_clocks.o(.bss.noinit)
    __tagsym$$used.0                         0x20000bb8   Number         0  startup.o(.bss.stack)
    g_main_stack                             0x20000bb8   Data        1024  startup.o(.bss.stack)
    [Anonymous Symbol]                       0x20000bb8   Section        0  startup.o(.bss.stack)

    Global Symbols

    Symbol Name                              Value     Ov Type        Size  Object(Section)

    BuildAttributes$$THM_ISAv4$E$P$D$K$B$S$7EM$8M$VFPi5$EXTD16$VFPS$VFMA$PE$A:L22UL41UL21$X:L11$S22US41US21$IEEE1$IW$USESV6$~STKCKD$USESV7$WCHAR32$ENUMINT$~SHL$OSPACE$ROPI$MICROLIB$REQ8$PRES8$EABIv2 0x00000000   Number         0  anon$$obj.o ABSOLUTE
    Image$$__tz_FLASH_S$$Base                0x00000000   Number         0  anon$$obj.o ABSOLUTE
    __Vectors                                0x00000000   Data          64  startup.o(.fixed_vectors)
    _printf_a                                0x00000000   Number         0  printfstubs.o ABSOLUTE
    _printf_c                                0x00000000   Number         0  printfstubs.o ABSOLUTE
    _printf_charcount                        0x00000000   Number         0  printfstubs.o ABSOLUTE
    _printf_d                                0x00000000   Number         0  printfstubs.o ABSOLUTE
    _printf_e                                0x00000000   Number         0  printfstubs.o ABSOLUTE
    _printf_f                                0x00000000   Number         0  printfstubs.o ABSOLUTE
    _printf_flags                            0x00000000   Number         0  printfstubs.o ABSOLUTE
    _printf_fp_dec                           0x00000000   Number         0  printfstubs.o ABSOLUTE
    _printf_fp_hex                           0x00000000   Number         0  printfstubs.o ABSOLUTE
    _printf_g                                0x00000000   Number         0  printfstubs.o ABSOLUTE
    _printf_i                                0x00000000   Number         0  printfstubs.o ABSOLUTE
    _printf_int_dec                          0x00000000   Number         0  printfstubs.o ABSOLUTE
    _printf_l                                0x00000000   Number         0  printfstubs.o ABSOLUTE
    _printf_lc                               0x00000000   Number         0  printfstubs.o ABSOLUTE
    _printf_ll                               0x00000000   Number         0  printfstubs.o ABSOLUTE
    _printf_lld                              0x00000000   Number         0  printfstubs.o ABSOLUTE
    _printf_lli                              0x00000000   Number         0  printfstubs.o ABSOLUTE
    _printf_llo                              0x00000000   Number         0  printfstubs.o ABSOLUTE
    _printf_llu                              0x00000000   Number         0  printfstubs.o ABSOLUTE
    _printf_llx                              0x00000000   Number         0  printfstubs.o ABSOLUTE
    _printf_longlong_dec                     0x00000000   Number         0  printfstubs.o ABSOLUTE
    _printf_longlong_hex                     0x00000000   Number         0  printfstubs.o ABSOLUTE
    _printf_longlong_oct                     0x00000000   Number         0  printfstubs.o ABSOLUTE
    _printf_ls                               0x00000000   Number         0  printfstubs.o ABSOLUTE
    _printf_mbtowc                           0x00000000   Number         0  printfstubs.o ABSOLUTE
    _printf_n                                0x00000000   Number         0  printfstubs.o ABSOLUTE
    _printf_o                                0x00000000   Number         0  printfstubs.o ABSOLUTE
    _printf_p                                0x00000000   Number         0  printfstubs.o ABSOLUTE
    _printf_percent                          0x00000000   Number         0  printfstubs.o ABSOLUTE
    _printf_pre_padding                      0x00000000   Number         0  printfstubs.o ABSOLUTE
    _printf_return_value                     0x00000000   Number         0  printfstubs.o ABSOLUTE
    _printf_s                                0x00000000   Number         0  printfstubs.o ABSOLUTE
    _printf_sizespec                         0x00000000   Number         0  printfstubs.o ABSOLUTE
    _printf_str                              0x00000000   Number         0  printfstubs.o ABSOLUTE
    _printf_truncate_signed                  0x00000000   Number         0  printfstubs.o ABSOLUTE
    _printf_truncate_unsigned                0x00000000   Number         0  printfstubs.o ABSOLUTE
    _printf_u                                0x00000000   Number         0  printfstubs.o ABSOLUTE
    _printf_wc                               0x00000000   Number         0  printfstubs.o ABSOLUTE
    _printf_wctomb                           0x00000000   Number         0  printfstubs.o ABSOLUTE
    _printf_widthprec                        0x00000000   Number         0  printfstubs.o ABSOLUTE
    _printf_x                                0x00000000   Number         0  printfstubs.o ABSOLUTE
    _scanf_longlong                           - Undefined Weak Reference
    _scanf_real                               - Undefined Weak Reference
    _scanf_string                             - Undefined Weak Reference
    g_vector_table                           0x00000040   Data         384  vector_data.o(.application_vectors)
    Image$$DATA$$Length                      0x000000b4   Number         0  anon$$obj.o ABSOLUTE
    Image$$INIT_ARRAY$$Base                  0x000001c0   Number         0  anon$$obj.o ABSOLUTE
    Image$$INIT_ARRAY$$Limit                 0x000001c0   Number         0  anon$$obj.o ABSOLUTE
    __aeabi_memcpy                           0x000001c1   Thumb Code    36  memcpya.o(.text)
    __aeabi_memcpy4                          0x000001c1   Thumb Code     0  memcpya.o(.text)
    __aeabi_memcpy8                          0x000001c1   Thumb Code     0  memcpya.o(.text)
    __aeabi_memset                           0x000001e5   Thumb Code    14  memseta.o(.text)
    __aeabi_memset4                          0x000001e5   Thumb Code     0  memseta.o(.text)
    __aeabi_memset8                          0x000001e5   Thumb Code     0  memseta.o(.text)
    __aeabi_memclr                           0x000001f3   Thumb Code     4  memseta.o(.text)
    __aeabi_memclr4                          0x000001f3   Thumb Code     0  memseta.o(.text)
    __aeabi_memclr8                          0x000001f3   Thumb Code     0  memseta.o(.text)
    _memset$wrapper                          0x000001f7   Thumb Code    18  memseta.o(.text)
    strstr                                   0x00000209   Thumb Code    36  strstr.o(.text)
    strchr                                   0x0000022d   Thumb Code    20  strchr.o(.text)
    strlen                                   0x00000241   Thumb Code    14  strlen.o(.text)
    memcmp                                   0x0000024f   Thumb Code    26  memcmp.o(.text)
    strcpy                                   0x00000269   Thumb Code    18  strcpy.o(.text)
    __0sscanf                                0x0000027d   Thumb Code    48  __0sscanf.o(.text)
    _scanf_int                               0x000002b5   Thumb Code   332  _scanf_int.o(.text)
    atoi                                     0x00000401   Thumb Code    26  atoi.o(.text)
    __aeabi_uldivmod                         0x0000041b   Thumb Code    98  uldiv.o(.text)
    _chval                                   0x0000047d   Thumb Code    28  _chval.o(.text)
    __vfscanf_char                           0x000004a5   Thumb Code    20  scanf_char.o(.text)
    _sgetc                                   0x000004c1   Thumb Code    30  _sgetc.o(.text)
    _sbackspace                              0x000004df   Thumb Code    34  _sgetc.o(.text)
    strtol                                   0x00000501   Thumb Code   112  strtol.o(.text)
    __aeabi_llsl                             0x00000571   Thumb Code    30  llshl.o(.text)
    _ll_shift_l                              0x00000571   Thumb Code     0  llshl.o(.text)
    __aeabi_llsr                             0x0000058f   Thumb Code    32  llushr.o(.text)
    _ll_ushift_r                             0x0000058f   Thumb Code     0  llushr.o(.text)
    __rt_ctype_table                         0x000005b1   Thumb Code     4  ctype_o.o(.text)
    isspace                                  0x000005b9   Thumb Code    18  isspace_o.o(.text)
    __vfscanf                                0x000005cd   Thumb Code   808  _scanf.o(.text)
    _strtoul                                 0x000008f9   Thumb Code   158  _strtoul.o(.text)
    AS608_AddFR                              0x00000997   Thumb Code   102  as608pro.o(.text.AS608_AddFR)
    AS608_Check                              0x000009fd   Thumb Code   172  as608pro.o(.text.AS608_Check)
    Image$$BSS$$ZI$$Length                   0x00000ae4   Number         0  anon$$obj.o ABSOLUTE
    AS608_DeleteFR                           0x00000af5   Thumb Code    30  as608pro.o(.text.AS608_DeleteFR)
    AS608_GetFRNumber                        0x00000b13   Thumb Code    20  as608pro.o(.text.AS608_GetFRNumber)
    AS608_Init                               0x00000b27   Thumb Code    38  as608pro.o(.text.AS608_Init)
    AS608_PressFR                            0x00000b4d   Thumb Code   110  as608pro.o(.text.AS608_PressFR)
    BusFault_Handler                         0x00000bbb   Thumb Code     4  startup.o(.text.Default_Handler)
    DebugMon_Handler                         0x00000bbb   Thumb Code     4  startup.o(.text.Default_Handler)
    Default_Handler                          0x00000bbb   Thumb Code     4  startup.o(.text.Default_Handler)
    HardFault_Handler                        0x00000bbb   Thumb Code     4  startup.o(.text.Default_Handler)
    MemManage_Handler                        0x00000bbb   Thumb Code     4  startup.o(.text.Default_Handler)
    PendSV_Handler                           0x00000bbb   Thumb Code     4  startup.o(.text.Default_Handler)
    SVC_Handler                              0x00000bbb   Thumb Code     4  startup.o(.text.Default_Handler)
    SecureFault_Handler                      0x00000bbb   Thumb Code     4  startup.o(.text.Default_Handler)
    SysTick_Handler                          0x00000bbb   Thumb Code     4  startup.o(.text.Default_Handler)
    UsageFault_Handler                       0x00000bbb   Thumb Code     4  startup.o(.text.Default_Handler)
    HIM_connection                           0x00000bc1   Thumb Code  1120  tjc_usart_hmi.o(.text.HIM_connection)
    NMI_Handler                              0x00001139   Thumb Code    68  bsp_group_irq.o(.text.NMI_Handler)
    PN532_GetFirmVersion                     0x0000117d   Thumb Code   120  pn532.o(.text.PN532_GetFirmVersion)
    PN532_GetTick                            0x000011f5   Thumb Code    12  pn532_hal.o(.text.PN532_GetTick)
    PN532_I2C_Receive                        0x00001201   Thumb Code   182  pn532_hal.o(.text.PN532_I2C_Receive)
    PN532_I2C_Transmit                       0x000012b9   Thumb Code   174  pn532_hal.o(.text.PN532_I2C_Transmit)
    PN532_INIT                               0x00001369   Thumb Code    72  pn532.o(.text.PN532_INIT)
    PN532_Init_Hardware                      0x000013c9   Thumb Code    38  pn532_hal.o(.text.PN532_Init_Hardware)
    PN532_ReadPassTarget                     0x000013ef   Thumb Code   162  pn532.o(.text.PN532_ReadPassTarget)
    PN532_SetSamConfig                       0x00001491   Thumb Code   122  pn532.o(.text.PN532_SetSamConfig)
    PN532_WaitReady                          0x0000150d   Thumb Code   114  pn532.o(.text.PN532_WaitReady)
    PN532_connect                            0x00001581   Thumb Code   416  pn532.o(.text.PN532_connect)
    PN532_parse_frame                        0x0000178d   Thumb Code    94  pn532.o(.text.PN532_parse_frame)
    PN532_recv                               0x000017eb   Thumb Code    36  pn532.o(.text.PN532_recv)
    PN532_recv_ack                           0x0000180f   Thumb Code    66  pn532.o(.text.PN532_recv_ack)
    PN532_recv_data                          0x00001851   Thumb Code    48  pn532.o(.text.PN532_recv_data)
    PN532_send_data                          0x00001881   Thumb Code    90  pn532.o(.text.PN532_send_data)
    PS_DeletChar                             0x000018dd   Thumb Code   256  as608pro.o(.text.PS_DeletChar)
    PS_Empty                                 0x000019dd   Thumb Code   124  as608pro.o(.text.PS_Empty)
    PS_GenChar                               0x00001a59   Thumb Code   152  as608pro.o(.text.PS_GenChar)
    PS_GetImage                              0x00001af1   Thumb Code   124  as608pro.o(.text.PS_GetImage)
    PS_HandShake                             0x00001b6d   Thumb Code   198  as608pro.o(.text.PS_HandShake)
    PS_HighSpeedSearch                       0x00001c35   Thumb Code   312  as608pro.o(.text.PS_HighSpeedSearch)
    PS_Match                                 0x00001d6d   Thumb Code   124  as608pro.o(.text.PS_Match)
    PS_ReadSysPara                           0x00001de9   Thumb Code   154  as608pro.o(.text.PS_ReadSysPara)
    PS_RegModel                              0x00001e85   Thumb Code   124  as608pro.o(.text.PS_RegModel)
    PS_StoreChar                             0x00001f01   Thumb Code   222  as608pro.o(.text.PS_StoreChar)
    PS_ValidTempleteNum                      0x00001fe1   Thumb Code   130  as608pro.o(.text.PS_ValidTempleteNum)
    R_BSP_Init_RTC                           0x00002065   Thumb Code   122  bsp_clocks.o(.text.R_BSP_Init_RTC)
    R_BSP_RegisterProtectDisable             0x000020df   Thumb Code    78  bsp_register_protection.o(.text.R_BSP_RegisterProtectDisable)
    R_BSP_RegisterProtectEnable              0x0000212d   Thumb Code    82  bsp_register_protection.o(.text.R_BSP_RegisterProtectEnable)
    R_BSP_SoftwareDelay                      0x0000217f   Thumb Code    72  bsp_delay.o(.text.R_BSP_SoftwareDelay)
    R_BSP_SubClockStabilizeWaitAfterReset    0x000021c7   Thumb Code     2  bsp_clocks.o(.text.R_BSP_SubClockStabilizeWaitAfterReset)
    R_BSP_WarmStart                          0x000021c9   Thumb Code    26  hal_entry.o(.text.R_BSP_WarmStart)
    R_GPT_CallbackSet                        0x000021e3   Thumb Code    14  r_gpt.o(.text.R_GPT_CallbackSet)
    R_GPT_Close                              0x000021f1   Thumb Code   148  r_gpt.o(.text.R_GPT_Close)
    R_GPT_CompareMatchSet                    0x00002285   Thumb Code    14  r_gpt.o(.text.R_GPT_CompareMatchSet)
    R_GPT_Disable                            0x00002293   Thumb Code    30  r_gpt.o(.text.R_GPT_Disable)
    R_GPT_DutyCycleSet                       0x000022b1   Thumb Code   164  r_gpt.o(.text.R_GPT_DutyCycleSet)
    R_GPT_Enable                             0x00002355   Thumb Code    56  r_gpt.o(.text.R_GPT_Enable)
    R_GPT_InfoGet                            0x0000238d   Thumb Code    60  r_gpt.o(.text.R_GPT_InfoGet)
    R_GPT_Open                               0x000023c9   Thumb Code   580  r_gpt.o(.text.R_GPT_Open)
    R_GPT_PeriodSet                          0x0000260d   Thumb Code    56  r_gpt.o(.text.R_GPT_PeriodSet)
    R_GPT_Reset                              0x00002645   Thumb Code    10  r_gpt.o(.text.R_GPT_Reset)
    R_GPT_Start                              0x0000264f   Thumb Code    10  r_gpt.o(.text.R_GPT_Start)
    R_GPT_StatusGet                          0x00002659   Thumb Code    18  r_gpt.o(.text.R_GPT_StatusGet)
    R_GPT_Stop                               0x0000266b   Thumb Code    10  r_gpt.o(.text.R_GPT_Stop)
    R_IIC_MASTER_Abort                       0x00002675   Thumb Code    50  r_iic_master.o(.text.R_IIC_MASTER_Abort)
    R_IIC_MASTER_CallbackSet                 0x000026a7   Thumb Code    14  r_iic_master.o(.text.R_IIC_MASTER_CallbackSet)
    R_IIC_MASTER_Close                       0x000026b5   Thumb Code   208  r_iic_master.o(.text.R_IIC_MASTER_Close)
    R_IIC_MASTER_Open                        0x00002785   Thumb Code   128  r_iic_master.o(.text.R_IIC_MASTER_Open)
    R_IIC_MASTER_Read                        0x00002805   Thumb Code    12  r_iic_master.o(.text.R_IIC_MASTER_Read)
    R_IIC_MASTER_SlaveAddressSet             0x00002811   Thumb Code    10  r_iic_master.o(.text.R_IIC_MASTER_SlaveAddressSet)
    R_IIC_MASTER_StatusGet                   0x0000281b   Thumb Code    24  r_iic_master.o(.text.R_IIC_MASTER_StatusGet)
    R_IIC_MASTER_Write                       0x00002833   Thumb Code    12  r_iic_master.o(.text.R_IIC_MASTER_Write)
    R_IOPORT_Close                           0x0000283f   Thumb Code    10  r_ioport.o(.text.R_IOPORT_Close)
    R_IOPORT_Open                            0x00002849   Thumb Code    22  r_ioport.o(.text.R_IOPORT_Open)
    R_IOPORT_PinCfg                          0x0000285f   Thumb Code   174  r_ioport.o(.text.R_IOPORT_PinCfg)
    R_IOPORT_PinEventInputRead               0x0000290d   Thumb Code    40  r_ioport.o(.text.R_IOPORT_PinEventInputRead)
    R_IOPORT_PinEventOutputWrite             0x00002935   Thumb Code    60  r_ioport.o(.text.R_IOPORT_PinEventOutputWrite)
    R_IOPORT_PinRead                         0x00002971   Thumb Code    34  r_ioport.o(.text.R_IOPORT_PinRead)
    R_IOPORT_PinWrite                        0x00002993   Thumb Code    36  r_ioport.o(.text.R_IOPORT_PinWrite)
    R_IOPORT_PinsCfg                         0x000029b7   Thumb Code    12  r_ioport.o(.text.R_IOPORT_PinsCfg)
    R_IOPORT_PortDirectionSet                0x000029c3   Thumb Code    44  r_ioport.o(.text.R_IOPORT_PortDirectionSet)
    R_IOPORT_PortEventInputRead              0x000029ef   Thumb Code    24  r_ioport.o(.text.R_IOPORT_PortEventInputRead)
    R_IOPORT_PortEventOutputWrite            0x00002a07   Thumb Code    32  r_ioport.o(.text.R_IOPORT_PortEventOutputWrite)
    R_IOPORT_PortRead                        0x00002a27   Thumb Code    22  r_ioport.o(.text.R_IOPORT_PortRead)
    R_IOPORT_PortWrite                       0x00002a3d   Thumb Code    32  r_ioport.o(.text.R_IOPORT_PortWrite)
    R_SCI_UART_Abort                         0x00002a5d   Thumb Code    34  r_sci_uart.o(.text.R_SCI_UART_Abort)
    R_SCI_UART_BaudSet                       0x00002a7f   Thumb Code   104  r_sci_uart.o(.text.R_SCI_UART_BaudSet)
    R_SCI_UART_CallbackSet                   0x00002ae7   Thumb Code    14  r_sci_uart.o(.text.R_SCI_UART_CallbackSet)
    R_SCI_UART_Close                         0x00002af5   Thumb Code   166  r_sci_uart.o(.text.R_SCI_UART_Close)
    R_SCI_UART_InfoGet                       0x00002b9b   Thumb Code    12  r_sci_uart.o(.text.R_SCI_UART_InfoGet)
    R_SCI_UART_Open                          0x00002ba7   Thumb Code   826  r_sci_uart.o(.text.R_SCI_UART_Open)
    R_SCI_UART_Read                          0x00002ee1   Thumb Code    10  r_sci_uart.o(.text.R_SCI_UART_Read)
    R_SCI_UART_ReadStop                      0x00002eeb   Thumb Code    14  r_sci_uart.o(.text.R_SCI_UART_ReadStop)
    R_SCI_UART_Write                         0x00002ef9   Thumb Code    74  r_sci_uart.o(.text.R_SCI_UART_Write)
    Reset_Handler                            0x00002f45   Thumb Code    10  startup.o(.text.Reset_Handler)
    SendHead                                 0x00003041   Thumb Code    86  as608pro.o(.text.SendHead)
    SystemCoreClockUpdate                    0x000030ef   Thumb Code    44  bsp_clocks.o(.text.SystemCoreClockUpdate)
    SystemInit                               0x0000311d   Thumb Code   244  system.o(.text.SystemInit)
    UART_HIM_Init                            0x00003211   Thumb Code    32  tjc_usart_hmi.o(.text.UART_HIM_Init)
    bsp_clock_init                           0x00003231   Thumb Code   316  bsp_clocks.o(.text.bsp_clock_init)
    bsp_init                                 0x0000336d   Thumb Code     2  bsp_common.o(.text.bsp_init_internal)
    bsp_init_internal                        0x0000336d   Thumb Code     2  bsp_common.o(.text.bsp_init_internal)
    bsp_irq_cfg                              0x00003371   Thumb Code   150  bsp_irq.o(.text.bsp_irq_cfg)
    bsp_prv_software_delay_loop              0x00003407   Thumb Code     8  bsp_delay.o(.text.bsp_prv_software_delay_loop)
    dakai_clock_display                      0x000034e9   Thumb Code    60  esp_connect.o(.text.dakai_clock_display)
    finger_addtion                           0x0000353d   Thumb Code   200  as608pro.o(.text.finger_addtion)
    finger_search                            0x00003675   Thumb Code   232  as608pro.o(.text.finger_search)
    fputc                                    0x000037c9   Thumb Code    52  fun.o(.text.fputc)
    g_system_tick                            0x000037fd   Thumb Code    16  pn532_hal.o(.text.g_system_tick)
    gpt_counter_overflow_isr                 0x0000386b   Thumb Code   172  r_gpt.o(.text.gpt_counter_overflow_isr)
    hal_entry                                0x00003919   Thumb Code   132  hal_entry.o(.text.hal_entry)
    i2c_master_callback                      0x000039b1   Thumb Code    62  pn532_hal.o(.text.i2c_master_callback)
    iic_master_eri_isr                       0x000039ef   Thumb Code   328  r_iic_master.o(.text.iic_master_eri_isr)
    iic_master_rxi_isr                       0x00003e2b   Thumb Code   398  r_iic_master.o(.text.iic_master_rxi_isr)
    iic_master_tei_isr                       0x00003fb9   Thumb Code   222  r_iic_master.o(.text.iic_master_tei_isr)
    iic_master_txi_isr                       0x00004099   Thumb Code   282  r_iic_master.o(.text.iic_master_txi_isr)
    key_scan                                 0x000041b5   Thumb Code   192  fun.o(.text.key_scan)
    main                                     0x000042a5   Thumb Code    10  main.o(.text.main)
    motor_init                               0x000042af   Thumb Code   298  motor.o(.text.motor_init)
    motor_task                               0x000043d9   Thumb Code   288  motor.o(.text.motor_task)
    process_uart2_data                       0x000044f9   Thumb Code   220  esp_connect.o(.text.process_uart2_data)
    process_uart8_data                       0x00004621   Thumb Code   184  k230_connect.o(.text.process_uart8_data)
    sci_uart_eri_isr                         0x00004855   Thumb Code   106  r_sci_uart.o(.text.sci_uart_eri_isr)
    sci_uart_rxi_isr                         0x000048bf   Thumb Code   136  r_sci_uart.o(.text.sci_uart_rxi_isr)
    sci_uart_tei_isr                         0x00004947   Thumb Code    74  r_sci_uart.o(.text.sci_uart_tei_isr)
    sci_uart_txi_isr                         0x00004991   Thumb Code   140  r_sci_uart.o(.text.sci_uart_txi_isr)
    send_wifi_to_esp32                       0x00004a1d   Thumb Code    44  esp_connect.o(.text.send_wifi_to_esp32)
    timeout_search_1ms                       0x00004a69   Thumb Code    42  as608pro.o(.text.timeout_search_1ms)
    timer_1ms_callback                       0x00004a93   Thumb Code   112  fun.o(.text.timer_1ms_callback)
    timer_callback                           0x00004b03   Thumb Code    92  esp_connect.o(.text.timer_callback)
    tjc_send_string                          0x00004b61   Thumb Code   164  tjc_usart_hmi.o(.text.tjc_send_string)
    uart2_callback                           0x00004c05   Thumb Code   258  esp_connect.o(.text.uart2_callback)
    uart2_init                               0x00004d07   Thumb Code   102  esp_connect.o(.text.uart2_init)
    uart2_send_string                        0x00004d6d   Thumb Code    52  esp_connect.o(.text.uart2_send_string)
    uart2_send_value                         0x00004da1   Thumb Code    28  esp_connect.o(.text.uart2_send_value)
    uart3_callback                           0x00004dc5   Thumb Code   122  as608pro.o(.text.uart3_callback)
    uart5_callback                           0x00004e3f   Thumb Code   124  tjc_usart_hmi.o(.text.uart5_callback)
    uart7_callback                           0x00004ebb   Thumb Code    56  fun.o(.text.uart7_callback)
    uart8_callback                           0x00004ef5   Thumb Code   182  k230_connect.o(.text.uart8_callback)
    uart8_init                               0x00004fab   Thumb Code    50  k230_connect.o(.text.uart8_init)
    uart8_send_value                         0x00004fdd   Thumb Code    64  k230_connect.o(.text.uart8_send_value)
    uart9_callback                           0x00005025   Thumb Code   160  asr_pro.o(.text.uart9_callback)
    uart9_init                               0x000050c5   Thumb Code    14  asr_pro.o(.text.uart9_init)
    uart9_send_value                         0x000050d5   Thumb Code    64  asr_pro.o(.text.uart9_send_value)
    update_clock_display                     0x0000511d   Thumb Code    90  esp_connect.o(.text.update_clock_display)
    __0printf$8                              0x00005179   Thumb Code    22  printf8.o(i.__0printf$8)
    __1printf$8                              0x00005179   Thumb Code     0  printf8.o(i.__0printf$8)
    __2printf                                0x00005179   Thumb Code     0  printf8.o(i.__0printf$8)
    __0snprintf$8                            0x00005199   Thumb Code    48  printf8.o(i.__0snprintf$8)
    __1snprintf$8                            0x00005199   Thumb Code     0  printf8.o(i.__0snprintf$8)
    __2snprintf                              0x00005199   Thumb Code     0  printf8.o(i.__0snprintf$8)
    __0sprintf$8                             0x000051cd   Thumb Code    34  printf8.o(i.__0sprintf$8)
    __1sprintf$8                             0x000051cd   Thumb Code     0  printf8.o(i.__0sprintf$8)
    __2sprintf                               0x000051cd   Thumb Code     0  printf8.o(i.__0sprintf$8)
    __aeabi_errno_addr                       0x000051f5   Thumb Code     4  errno.o(i.__aeabi_errno_addr)
    __rt_errno_addr                          0x000051f5   Thumb Code     0  errno.o(i.__aeabi_errno_addr)
    puts                                     0x00005681   Thumb Code    30  puts.o(i.puts)
    __ctype_table                            0x000056a4   Data         129  ctype_o.o(.constdata)
    g_bsp_pin_cfg                            0x00005734   Data          12  pin_data.o(.rodata.g_bsp_pin_cfg)
    g_bsp_pin_cfg_data                       0x00005740   Data         216  pin_data.o(.rodata.g_bsp_pin_cfg_data)
    g_i2c1                                   0x00005818   Data          12  hal_data.o(.rodata.g_i2c1)
    g_i2c1_cfg                               0x00005824   Data          56  hal_data.o(.rodata.g_i2c1_cfg)
    g_i2c1_extend                            0x0000585c   Data          16  hal_data.o(.rodata.g_i2c1_extend)
    g_i2c_master_on_iic                      0x0000586c   Data          32  r_iic_master.o(.rodata.g_i2c_master_on_iic)
    g_interrupt_event_link_select            0x0000588c   Data         384  vector_data.o(.rodata.g_interrupt_event_link_select)
    g_ioport                                 0x00005a0c   Data          12  common_data.o(.rodata.g_ioport)
    g_ioport_on_ioport                       0x00005a18   Data          52  r_ioport.o(.rodata.g_ioport_on_ioport)
    g_timer1_cfg                             0x00005a4c   Data          36  hal_data.o(.rodata.g_timer1_cfg)
    g_timer1_extend                          0x00005a70   Data          84  hal_data.o(.rodata.g_timer1_extend)
    g_timer2_cfg                             0x00005ac4   Data          36  hal_data.o(.rodata.g_timer2_cfg)
    g_timer2_extend                          0x00005ae8   Data          84  hal_data.o(.rodata.g_timer2_extend)
    g_timer_1ms                              0x00005b3c   Data          12  hal_data.o(.rodata.g_timer_1ms)
    g_timer_1ms_cfg                          0x00005b48   Data          36  hal_data.o(.rodata.g_timer_1ms_cfg)
    g_timer_1ms_extend                       0x00005b6c   Data          84  hal_data.o(.rodata.g_timer_1ms_extend)
    g_timer_on_gpt                           0x00005bc0   Data          52  r_gpt.o(.rodata.g_timer_on_gpt)
    g_uart2                                  0x00005bf4   Data          12  hal_data.o(.rodata.g_uart2)
    g_uart2_cfg                              0x00005c00   Data          68  hal_data.o(.rodata.g_uart2_cfg)
    g_uart2_cfg_extend                       0x00005c44   Data          44  hal_data.o(.rodata.g_uart2_cfg_extend)
    g_uart3                                  0x00005c70   Data          12  hal_data.o(.rodata.g_uart3)
    g_uart3_cfg                              0x00005c7c   Data          68  hal_data.o(.rodata.g_uart3_cfg)
    g_uart3_cfg_extend                       0x00005cc0   Data          44  hal_data.o(.rodata.g_uart3_cfg_extend)
    g_uart5                                  0x00005cec   Data          12  hal_data.o(.rodata.g_uart5)
    g_uart5_cfg                              0x00005cf8   Data          68  hal_data.o(.rodata.g_uart5_cfg)
    g_uart5_cfg_extend                       0x00005d3c   Data          44  hal_data.o(.rodata.g_uart5_cfg_extend)
    g_uart7                                  0x00005d68   Data          12  hal_data.o(.rodata.g_uart7)
    g_uart7_cfg                              0x00005d74   Data          68  hal_data.o(.rodata.g_uart7_cfg)
    g_uart7_cfg_extend                       0x00005db8   Data          44  hal_data.o(.rodata.g_uart7_cfg_extend)
    g_uart8                                  0x00005de4   Data          12  hal_data.o(.rodata.g_uart8)
    g_uart8_cfg                              0x00005df0   Data          68  hal_data.o(.rodata.g_uart8_cfg)
    g_uart8_cfg_extend                       0x00005e34   Data          44  hal_data.o(.rodata.g_uart8_cfg_extend)
    g_uart9                                  0x00005e60   Data          12  hal_data.o(.rodata.g_uart9)
    g_uart9_cfg                              0x00005e6c   Data          68  hal_data.o(.rodata.g_uart9_cfg)
    g_uart9_cfg_extend                       0x00005eb0   Data          44  hal_data.o(.rodata.g_uart9_cfg_extend)
    g_uart_on_sci                            0x00005edc   Data          36  r_sci_uart.o(.rodata.g_uart_on_sci)
    gp_start_of_nonsecure_callable_flash     0x00005f00   Data           4  bsp_security.o(.rodata.gp_start_of_nonsecure_callable_flash)
    gp_start_of_nonsecure_callable_ram       0x00005f04   Data           4  bsp_security.o(.rodata.gp_start_of_nonsecure_callable_ram)
    gp_start_of_nonsecure_data_flash         0x00005f08   Data           4  bsp_security.o(.rodata.gp_start_of_nonsecure_data_flash)
    gp_start_of_nonsecure_flash              0x00005f0c   Data           4  bsp_security.o(.rodata.gp_start_of_nonsecure_flash)
    gp_start_of_nonsecure_ram                0x00005f10   Data           4  bsp_security.o(.rodata.gp_start_of_nonsecure_ram)
    gp_start_of_secure_data_flash            0x00005f14   Data           4  bsp_security.o(.rodata.gp_start_of_secure_data_flash)
    gp_start_of_secure_flash                 0x00005f18   Data           4  bsp_security.o(.rodata.gp_start_of_secure_flash)
    gp_start_of_secure_ram                   0x00005f1c   Data           4  bsp_security.o(.rodata.gp_start_of_secure_ram)
    pn532_ack                                0x00005f20   Data           6  pn532.o(.rodata.pn532_ack)
    Load$$DATA$$Base                         0x00006084   Number         0  anon$$obj.o ABSOLUTE
    Image$$__tz_FLASH_C$$Base                0x00007400   Number         0  anon$$obj.o ABSOLUTE
    Image$$__tz_FLASH_N$$Base                0x00008000   Number         0  anon$$obj.o ABSOLUTE
    Image$$__tz_DATA_FLASH_N$$Base           0x08000000   Number         0  anon$$obj.o ABSOLUTE
    Image$$__tz_DATA_FLASH_S$$Base           0x08000000   Number         0  anon$$obj.o ABSOLUTE
    Image$$DATA$$Base                        0x20000000   Number         0  anon$$obj.o ABSOLUTE
    Image$$__tz_RAM_S$$Base                  0x20000000   Number         0  anon$$obj.o ABSOLUTE
    __stdout                                 0x20000000   Data           4  stdout.o(.data)
    AS608Addr                                0x20000008   Data           4  as608pro.o(.data.AS608Addr)
    authorized_cards                         0x2000000c   Data         128  pn532.o(.data.authorized_cards)
    g_uart2_baud_setting                     0x2000008e   Data           4  hal_data.o(.data.g_uart2_baud_setting)
    g_uart3_baud_setting                     0x20000092   Data           4  hal_data.o(.data.g_uart3_baud_setting)
    g_uart5_baud_setting                     0x20000096   Data           4  hal_data.o(.data.g_uart5_baud_setting)
    g_uart7_baud_setting                     0x2000009a   Data           4  hal_data.o(.data.g_uart7_baud_setting)
    g_uart8_baud_setting                     0x2000009e   Data           4  hal_data.o(.data.g_uart8_baud_setting)
    g_uart9_baud_setting                     0x200000a2   Data           4  hal_data.o(.data.g_uart9_baud_setting)
    level_2                                  0x200000ac   Data           4  fun.o(.data.level_2)
    num_cards                                0x200000b0   Data           1  pn532.o(.data.num_cards)
    AS608Para                                0x200000b4   Data          12  as608pro.o(.bss.AS608Para)
    Image$$BSS$$ZI$$Base                     0x200000b4   Number         0  anon$$obj.o ABSOLUTE
    AS608_USART_RX_BUF                       0x200000c1   Data         400  as608pro.o(.bss.AS608_USART_RX_BUF)
    AS608_USART_RX_STA                       0x20000252   Data           2  as608pro.o(.bss.AS608_USART_RX_STA)
    SystemCoreClock                          0x200002d4   Data           4  system.o(.bss.SystemCoreClock)
    USART_Rbuffer_Num                        0x200002d8   Data           1  tjc_usart_hmi.o(.bss.USART_Rbuffer_Num)
    ValidN                                   0x200002da   Data           2  as608pro.o(.bss.ValidN)
    a                                        0x200002dc   Data           4  tjc_usart_hmi.o(.bss.a)
    count                                    0x200002e0   Data           4  fun.o(.bss.count)
    g_bsp_group_irq_sources                  0x200002e4   Data          64  bsp_group_irq.o(.bss.g_bsp_group_irq_sources)
    g_i2c1_ctrl                              0x2000032c   Data          64  hal_data.o(.bss.g_i2c1_ctrl)
    g_ioport_ctrl                            0x20000374   Data           8  common_data.o(.bss.g_ioport_ctrl)
    g_protect_counters                       0x2000037c   Data           8  bsp_register_protection.o(.bss.g_protect_counters)
    g_protect_pfswe_counter                  0x20000384   Data           4  bsp_io.o(.bss.g_protect_pfswe_counter)
    g_rx_buf                                 0x2000039c   Data          24  fun.o(.bss.g_rx_buf)
    g_timer1_ctrl                            0x200003bc   Data          32  hal_data.o(.bss.g_timer1_ctrl)
    g_timer2_ctrl                            0x200003dc   Data          32  hal_data.o(.bss.g_timer2_ctrl)
    g_timer_1ms_ctrl                         0x200003fc   Data          32  hal_data.o(.bss.g_timer_1ms_ctrl)
    g_uart2_ctrl                             0x20000420   Data          48  hal_data.o(.bss.g_uart2_ctrl)
    g_uart3_ctrl                             0x20000454   Data          48  hal_data.o(.bss.g_uart3_ctrl)
    g_uart5_ctrl                             0x20000488   Data          48  hal_data.o(.bss.g_uart5_ctrl)
    g_uart7_ctrl                             0x200004c0   Data          48  hal_data.o(.bss.g_uart7_ctrl)
    g_uart8_ctrl                             0x200004f8   Data          48  hal_data.o(.bss.g_uart8_ctrl)
    g_uart9_ctrl                             0x2000052c   Data          48  hal_data.o(.bss.g_uart9_ctrl)
    gp_renesas_isr_context                   0x20000560   Data         384  bsp_irq.o(.bss.gp_renesas_isr_context)
    key_press_time                           0x200006e0   Data           2  fun.o(.bss.key_press_time)
    key_state                                0x200006e4   Data           4  fun.o(.bss.key_state)
    level                                    0x200006ec   Data           4  as608pro.o(.bss.level)
    lock_flag                                0x200006f0   Data           1  tjc_usart_hmi.o(.bss.lock_flag)
    motor_flag                               0x200006f1   Data           1  motor.o(.bss.motor_flag)
    result                                   0x200006f2   Data           1  pn532.o(.bss.result)
    ringBuffer                               0x200006f4   Data         506  tjc_usart_hmi.o(.bss.ringBuffer)
    str                                      0x200008f4   Data         100  tjc_usart_hmi.o(.bss.str)
    str1                                     0x20000958   Data         100  as608pro.o(.bss.str1)
    str2                                     0x200009bc   Data         100  pn532.o(.bss.str2)
    str3                                     0x20000a20   Data         100  k230_connect.o(.bss.str3)
    str5                                     0x20000a84   Data          30  esp_connect.o(.bss.str5)
    uid                                      0x20000b1c   Data          10  pn532.o(.bss.uid)
    uid_len                                  0x20000b26   Data           1  pn532.o(.bss.uid_len)
    version                                  0x20000b27   Data           4  pn532.o(.bss.version)
    Image$$__tz_RAM_C$$Base                  0x20080000   Number         0  anon$$obj.o ABSOLUTE
    Image$$__tz_RAM_N$$Base                  0x20080000   Number         0  anon$$obj.o ABSOLUTE



==============================================================================

Memory Map of the image

  Image Entry point : 0x00002f45

  Load Region LOAD_REGION_FLASH (Base: 0x00000000, Size: 0x00006138, Max: 0x00100000, ABSOLUTE)

    Execution Region __tz_FLASH_S (Exec base: 0x00000000, Load base: 0x00000000, Size: 0x00000000, Max: 0x00000000, ABSOLUTE)

    Exec Addr    Load Addr    Size         Type   Attr      Idx    E Section Name        Object

    0x00000000        -       0x00000000   Zero   RW            1    __tz_FLASH_S.bss    anon$$obj.o


    Execution Region VECTORS (Exec base: 0x00000000, Load base: 0x00000000, Size: 0x000001c0, Max: 0xffffffff, ABSOLUTE, FIXED)

    Exec Addr    Load Addr    Size         Type   Attr      Idx    E Section Name        Object

    0x00000000   0x00000000   0x00000040   Data   RO          465    .fixed_vectors      startup.o
    0x00000040   0x00000040   0x00000180   Data   RO          889    .application_vectors  vector_data.o


    Execution Region MCUBOOT_SCE9_KEY (Exec base: 0x000001c0, Load base: 0x000001c0, Size: 0x00000000, Max: 0xffffffff, ABSOLUTE, FIXED)

    **** No section assigned to this execution region ****


    Execution Region INIT_ARRAY (Exec base: 0x000001c0, Load base: 0x000001c0, Size: 0x00000000, Max: 0xffffffff, ABSOLUTE, FIXED)

    **** No section assigned to this execution region ****


    Execution Region USB_DESC_FS (Exec base: 0x000001c0, Load base: 0x000001c0, Size: 0x00000000, Max: 0xffffffff, ABSOLUTE, FIXED)

    **** No section assigned to this execution region ****


    Execution Region RO_CODE_DATA (Exec base: 0x000001c0, Load base: 0x000001c0, Size: 0x00005ec4, Max: 0xffffffff, ABSOLUTE, FIXED)

    Exec Addr    Load Addr    Size         Type   Attr      Idx    E Section Name        Object

    0x000001c0   0x000001c0   0x00000024   Code   RO          903    .text               mc_w.l(memcpya.o)
    0x000001e4   0x000001e4   0x00000024   Code   RO          905    .text               mc_w.l(memseta.o)
    0x00000208   0x00000208   0x00000024   Code   RO          907    .text               mc_w.l(strstr.o)
    0x0000022c   0x0000022c   0x00000014   Code   RO          909    .text               mc_w.l(strchr.o)
    0x00000240   0x00000240   0x0000000e   Code   RO          911    .text               mc_w.l(strlen.o)
    0x0000024e   0x0000024e   0x0000001a   Code   RO          913    .text               mc_w.l(memcmp.o)
    0x00000268   0x00000268   0x00000012   Code   RO          915    .text               mc_w.l(strcpy.o)
    0x0000027a   0x0000027a   0x00000002   PAD
    0x0000027c   0x0000027c   0x00000038   Code   RO         1180    .text               mc_w.l(__0sscanf.o)
    0x000002b4   0x000002b4   0x0000014c   Code   RO         1182    .text               mc_w.l(_scanf_int.o)
    0x00000400   0x00000400   0x0000001a   Code   RO         1184    .text               mc_w.l(atoi.o)
    0x0000041a   0x0000041a   0x00000062   Code   RO         1198    .text               mc_w.l(uldiv.o)
    0x0000047c   0x0000047c   0x0000001c   Code   RO         1207    .text               mc_w.l(_chval.o)
    0x00000498   0x00000498   0x00000028   Code   RO         1209    .text               mc_w.l(scanf_char.o)
    0x000004c0   0x000004c0   0x00000040   Code   RO         1211    .text               mc_w.l(_sgetc.o)
    0x00000500   0x00000500   0x00000070   Code   RO         1213    .text               mc_w.l(strtol.o)
    0x00000570   0x00000570   0x0000001e   Code   RO         1226    .text               mc_w.l(llshl.o)
    0x0000058e   0x0000058e   0x00000020   Code   RO         1228    .text               mc_w.l(llushr.o)
    0x000005ae   0x000005ae   0x00000002   PAD
    0x000005b0   0x000005b0   0x00000008   Code   RO         1234    .text               mc_w.l(ctype_o.o)
    0x000005b8   0x000005b8   0x00000012   Code   RO         1256    .text               mc_w.l(isspace_o.o)
    0x000005ca   0x000005ca   0x00000002   PAD
    0x000005cc   0x000005cc   0x0000032c   Code   RO         1262    .text               mc_w.l(_scanf.o)
    0x000008f8   0x000008f8   0x0000009e   Code   RO         1264    .text               mc_w.l(_strtoul.o)
    0x00000996   0x00000996   0x00000066   Code   RO           54    .text.AS608_AddFR   as608pro.o
    0x000009fc   0x000009fc   0x000000f8   Code   RO           66    .text.AS608_Check   as608pro.o
    0x00000af4   0x00000af4   0x0000001e   Code   RO          110    .text.AS608_DeleteFR  as608pro.o
    0x00000b12   0x00000b12   0x00000014   Code   RO          112    .text.AS608_GetFRNumber  as608pro.o
    0x00000b26   0x00000b26   0x00000026   Code   RO           64    .text.AS608_Init    as608pro.o
    0x00000b4c   0x00000b4c   0x0000006e   Code   RO           58    .text.AS608_PressFR  as608pro.o
    0x00000bba   0x00000bba   0x00000004   Code   RO          462    .text.Default_Handler  startup.o
    0x00000bbe   0x00000bbe   0x00000002   PAD
    0x00000bc0   0x00000bc0   0x000004f4   Code   RO          303    .text.HIM_connection  tjc_usart_hmi.o
    0x000010b4   0x000010b4   0x00000084   Code   RO           78    .text.JudgeStr      as608pro.o
    0x00001138   0x00001138   0x00000044   Code   RO          548    .text.NMI_Handler   bsp_group_irq.o
    0x0000117c   0x0000117c   0x00000078   Code   RO          180    .text.PN532_GetFirmVersion  pn532.o
    0x000011f4   0x000011f4   0x0000000c   Code   RO          257    .text.PN532_GetTick  pn532_hal.o
    0x00001200   0x00001200   0x000000b6   Code   RO          261    .text.PN532_I2C_Receive  pn532_hal.o
    0x000012b6   0x000012b6   0x00000002   PAD
    0x000012b8   0x000012b8   0x000000ae   Code   RO          259    .text.PN532_I2C_Transmit  pn532_hal.o
    0x00001366   0x00001366   0x00000002   PAD
    0x00001368   0x00001368   0x00000060   Code   RO          178    .text.PN532_INIT    pn532.o
    0x000013c8   0x000013c8   0x00000026   Code   RO          263    .text.PN532_Init_Hardware  pn532_hal.o
    0x000013ee   0x000013ee   0x000000a2   Code   RO          186    .text.PN532_ReadPassTarget  pn532.o
    0x00001490   0x00001490   0x0000007a   Code   RO          182    .text.PN532_SetSamConfig  pn532.o
    0x0000150a   0x0000150a   0x00000002   PAD
    0x0000150c   0x0000150c   0x00000072   Code   RO          190    .text.PN532_WaitReady  pn532.o
    0x0000157e   0x0000157e   0x00000002   PAD
    0x00001580   0x00001580   0x0000020c   Code   RO          184    .text.PN532_connect  pn532.o
    0x0000178c   0x0000178c   0x0000005e   Code   RO          196    .text.PN532_parse_frame  pn532.o
    0x000017ea   0x000017ea   0x00000024   Code   RO          192    .text.PN532_recv    pn532.o
    0x0000180e   0x0000180e   0x00000042   Code   RO          194    .text.PN532_recv_ack  pn532.o
    0x00001850   0x00001850   0x00000030   Code   RO          198    .text.PN532_recv_data  pn532.o
    0x00001880   0x00001880   0x0000005a   Code   RO          188    .text.PN532_send_data  pn532.o
    0x000018da   0x000018da   0x00000002   PAD
    0x000018dc   0x000018dc   0x00000100   Code   RO           90    .text.PS_DeletChar  as608pro.o
    0x000019dc   0x000019dc   0x0000007c   Code   RO           92    .text.PS_Empty      as608pro.o
    0x00001a58   0x00001a58   0x00000098   Code   RO           80    .text.PS_GenChar    as608pro.o
    0x00001af0   0x00001af0   0x0000007c   Code   RO           70    .text.PS_GetImage   as608pro.o
    0x00001b6c   0x00001b6c   0x000000c6   Code   RO          108    .text.PS_HandShake  as608pro.o
    0x00001c32   0x00001c32   0x00000002   PAD
    0x00001c34   0x00001c34   0x00000138   Code   RO          104    .text.PS_HighSpeedSearch  as608pro.o
    0x00001d6c   0x00001d6c   0x0000007c   Code   RO           82    .text.PS_Match      as608pro.o
    0x00001de8   0x00001de8   0x0000009a   Code   RO           96    .text.PS_ReadSysPara  as608pro.o
    0x00001e82   0x00001e82   0x00000002   PAD
    0x00001e84   0x00001e84   0x0000007c   Code   RO           86    .text.PS_RegModel   as608pro.o
    0x00001f00   0x00001f00   0x000000de   Code   RO           88    .text.PS_StoreChar  as608pro.o
    0x00001fde   0x00001fde   0x00000002   PAD
    0x00001fe0   0x00001fe0   0x00000082   Code   RO          106    .text.PS_ValidTempleteNum  as608pro.o
    0x00002062   0x00002062   0x00000002   PAD
    0x00002064   0x00002064   0x0000007a   Code   RO          506    .text.R_BSP_Init_RTC  bsp_clocks.o
    0x000020de   0x000020de   0x0000004e   Code   RO          580    .text.R_BSP_RegisterProtectDisable  bsp_register_protection.o
    0x0000212c   0x0000212c   0x00000052   Code   RO          578    .text.R_BSP_RegisterProtectEnable  bsp_register_protection.o
    0x0000217e   0x0000217e   0x00000048   Code   RO          534    .text.R_BSP_SoftwareDelay  bsp_delay.o
    0x000021c6   0x000021c6   0x00000002   Code   RO          500    .text.R_BSP_SubClockStabilizeWaitAfterReset  bsp_clocks.o
    0x000021c8   0x000021c8   0x0000001a   Code   RO           42    .text.R_BSP_WarmStart  hal_entry.o
    0x000021e2   0x000021e2   0x0000000e   Code   RO          653    .text.R_GPT_CallbackSet  r_gpt.o
    0x000021f0   0x000021f0   0x00000094   Code   RO          655    .text.R_GPT_Close   r_gpt.o
    0x00002284   0x00002284   0x0000000e   Code   RO          647    .text.R_GPT_CompareMatchSet  r_gpt.o
    0x00002292   0x00002292   0x0000001e   Code   RO          641    .text.R_GPT_Disable  r_gpt.o
    0x000022b0   0x000022b0   0x000000a4   Code   RO          645    .text.R_GPT_DutyCycleSet  r_gpt.o
    0x00002354   0x00002354   0x00000038   Code   RO          639    .text.R_GPT_Enable  r_gpt.o
    0x0000238c   0x0000238c   0x0000003c   Code   RO          649    .text.R_GPT_InfoGet  r_gpt.o
    0x000023c8   0x000023c8   0x00000244   Code   RO          631    .text.R_GPT_Open    r_gpt.o
    0x0000260c   0x0000260c   0x00000038   Code   RO          643    .text.R_GPT_PeriodSet  r_gpt.o
    0x00002644   0x00002644   0x0000000a   Code   RO          637    .text.R_GPT_Reset   r_gpt.o
    0x0000264e   0x0000264e   0x0000000a   Code   RO          633    .text.R_GPT_Start   r_gpt.o
    0x00002658   0x00002658   0x00000012   Code   RO          651    .text.R_GPT_StatusGet  r_gpt.o
    0x0000266a   0x0000266a   0x0000000a   Code   RO          635    .text.R_GPT_Stop    r_gpt.o
    0x00002674   0x00002674   0x00000032   Code   RO          696    .text.R_IIC_MASTER_Abort  r_iic_master.o
    0x000026a6   0x000026a6   0x0000000e   Code   RO          700    .text.R_IIC_MASTER_CallbackSet  r_iic_master.o
    0x000026b4   0x000026b4   0x000000d0   Code   RO          704    .text.R_IIC_MASTER_Close  r_iic_master.o
    0x00002784   0x00002784   0x00000080   Code   RO          690    .text.R_IIC_MASTER_Open  r_iic_master.o
    0x00002804   0x00002804   0x0000000c   Code   RO          692    .text.R_IIC_MASTER_Read  r_iic_master.o
    0x00002810   0x00002810   0x0000000a   Code   RO          698    .text.R_IIC_MASTER_SlaveAddressSet  r_iic_master.o
    0x0000281a   0x0000281a   0x00000018   Code   RO          702    .text.R_IIC_MASTER_StatusGet  r_iic_master.o
    0x00002832   0x00002832   0x0000000c   Code   RO          694    .text.R_IIC_MASTER_Write  r_iic_master.o
    0x0000283e   0x0000283e   0x0000000a   Code   RO          731    .text.R_IOPORT_Close  r_ioport.o
    0x00002848   0x00002848   0x00000016   Code   RO          729    .text.R_IOPORT_Open  r_ioport.o
    0x0000285e   0x0000285e   0x000000ae   Code   RO          735    .text.R_IOPORT_PinCfg  r_ioport.o
    0x0000290c   0x0000290c   0x00000028   Code   RO          737    .text.R_IOPORT_PinEventInputRead  r_ioport.o
    0x00002934   0x00002934   0x0000003c   Code   RO          739    .text.R_IOPORT_PinEventOutputWrite  r_ioport.o
    0x00002970   0x00002970   0x00000022   Code   RO          741    .text.R_IOPORT_PinRead  r_ioport.o
    0x00002992   0x00002992   0x00000024   Code   RO          743    .text.R_IOPORT_PinWrite  r_ioport.o
    0x000029b6   0x000029b6   0x0000000c   Code   RO          733    .text.R_IOPORT_PinsCfg  r_ioport.o
    0x000029c2   0x000029c2   0x0000002c   Code   RO          745    .text.R_IOPORT_PortDirectionSet  r_ioport.o
    0x000029ee   0x000029ee   0x00000018   Code   RO          747    .text.R_IOPORT_PortEventInputRead  r_ioport.o
    0x00002a06   0x00002a06   0x00000020   Code   RO          749    .text.R_IOPORT_PortEventOutputWrite  r_ioport.o
    0x00002a26   0x00002a26   0x00000016   Code   RO          751    .text.R_IOPORT_PortRead  r_ioport.o
    0x00002a3c   0x00002a3c   0x00000020   Code   RO          753    .text.R_IOPORT_PortWrite  r_ioport.o
    0x00002a5c   0x00002a5c   0x00000022   Code   RO          778    .text.R_SCI_UART_Abort  r_sci_uart.o
    0x00002a7e   0x00002a7e   0x00000068   Code   RO          774    .text.R_SCI_UART_BaudSet  r_sci_uart.o
    0x00002ae6   0x00002ae6   0x0000000e   Code   RO          780    .text.R_SCI_UART_CallbackSet  r_sci_uart.o
    0x00002af4   0x00002af4   0x000000a6   Code   RO          782    .text.R_SCI_UART_Close  r_sci_uart.o
    0x00002b9a   0x00002b9a   0x0000000c   Code   RO          776    .text.R_SCI_UART_InfoGet  r_sci_uart.o
    0x00002ba6   0x00002ba6   0x0000033a   Code   RO          768    .text.R_SCI_UART_Open  r_sci_uart.o
    0x00002ee0   0x00002ee0   0x0000000a   Code   RO          770    .text.R_SCI_UART_Read  r_sci_uart.o
    0x00002eea   0x00002eea   0x0000000e   Code   RO          784    .text.R_SCI_UART_ReadStop  r_sci_uart.o
    0x00002ef8   0x00002ef8   0x0000004a   Code   RO          772    .text.R_SCI_UART_Write  r_sci_uart.o
    0x00002f42   0x00002f42   0x00000002   PAD
    0x00002f44   0x00002f44   0x0000000a   Code   RO          460  * .text.Reset_Handler  startup.o
    0x00002f4e   0x00002f4e   0x00000002   PAD
    0x00002f50   0x00002f50   0x00000096   Code   RO           72    .text.SendAddr      as608pro.o
    0x00002fe6   0x00002fe6   0x00000002   PAD
    0x00002fe8   0x00002fe8   0x00000056   Code   RO           76    .text.SendCheck     as608pro.o
    0x0000303e   0x0000303e   0x00000002   PAD
    0x00003040   0x00003040   0x00000056   Code   RO           68    .text.SendHead      as608pro.o
    0x00003096   0x00003096   0x00000002   PAD
    0x00003098   0x00003098   0x00000056   Code   RO           74    .text.SendLength    as608pro.o
    0x000030ee   0x000030ee   0x0000002c   Code   RO          490    .text.SystemCoreClockUpdate  bsp_clocks.o
    0x0000311a   0x0000311a   0x00000002   PAD
    0x0000311c   0x0000311c   0x000000f4   Code   RO          473    .text.SystemInit    system.o
    0x00003210   0x00003210   0x00000020   Code   RO          277    .text.UART_HIM_Init  tjc_usart_hmi.o
    0x00003230   0x00003230   0x0000013c   Code   RO          496    .text.bsp_clock_init  bsp_clocks.o
    0x0000336c   0x0000336c   0x00000002   Code   RO          517    .text.bsp_init_internal  bsp_common.o
    0x0000336e   0x0000336e   0x00000002   PAD
    0x00003370   0x00003370   0x00000096   Code   RO          566    .text.bsp_irq_cfg   bsp_irq.o
    0x00003406   0x00003406   0x00000008   Code   RO          536    .text.bsp_prv_software_delay_loop  bsp_delay.o
    0x0000340e   0x0000340e   0x00000002   PAD
    0x00003410   0x00003410   0x000000d8   Code   RO          757    .text.bsp_vbatt_init  r_ioport.o
    0x000034e8   0x000034e8   0x00000054   Code   RO          376    .text.dakai_clock_display  esp_connect.o
    0x0000353c   0x0000353c   0x00000138   Code   RO           52    .text.finger_addtion  as608pro.o
    0x00003674   0x00003674   0x00000154   Code   RO           56    .text.finger_search  as608pro.o
    0x000037c8   0x000037c8   0x00000034   Code   RO          153    .text.fputc         fun.o
    0x000037fc   0x000037fc   0x00000010   Code   RO          255    .text.g_system_tick  pn532_hal.o
    0x0000380c   0x0000380c   0x0000005e   Code   RO          657    .text.gpt_calculate_duty_cycle  r_gpt.o
    0x0000386a   0x0000386a   0x000000ac   Code   RO          671    .text.gpt_counter_overflow_isr  r_gpt.o
    0x00003916   0x00003916   0x00000002   PAD
    0x00003918   0x00003918   0x00000098   Code   RO           40    .text.hal_entry     hal_entry.o
    0x000039b0   0x000039b0   0x0000003e   Code   RO          253    .text.i2c_master_callback  pn532_hal.o
    0x000039ee   0x000039ee   0x00000148   Code   RO          716    .text.iic_master_eri_isr  r_iic_master.o
    0x00003b36   0x00003b36   0x00000036   Code   RO          718    .text.iic_master_notify  r_iic_master.o
    0x00003b6c   0x00003b6c   0x00000172   Code   RO          706    .text.iic_master_open_hw_master  r_iic_master.o
    0x00003cde   0x00003cde   0x00000002   PAD
    0x00003ce0   0x00003ce0   0x0000014a   Code   RO          708    .text.iic_master_read_write  r_iic_master.o
    0x00003e2a   0x00003e2a   0x0000018e   Code   RO          710    .text.iic_master_rxi_isr  r_iic_master.o
    0x00003fb8   0x00003fb8   0x000000de   Code   RO          714    .text.iic_master_tei_isr  r_iic_master.o
    0x00004096   0x00004096   0x00000002   PAD
    0x00004098   0x00004098   0x0000011a   Code   RO          712    .text.iic_master_txi_isr  r_iic_master.o
    0x000041b2   0x000041b2   0x00000002   PAD
    0x000041b4   0x000041b4   0x000000f0   Code   RO          145    .text.key_scan      fun.o
    0x000042a4   0x000042a4   0x0000000a   Code   RO          873    .text.main          main.o
    0x000042ae   0x000042ae   0x0000012a   Code   RO          437    .text.motor_init    motor.o
    0x000043d8   0x000043d8   0x00000120   Code   RO          447    .text.motor_task    motor.o
    0x000044f8   0x000044f8   0x00000128   Code   RO          372    .text.process_uart2_data  esp_connect.o
    0x00004620   0x00004620   0x000000dc   Code   RO          341    .text.process_uart8_data  k230_connect.o
    0x000046fc   0x000046fc   0x00000058   Code   RO          679    .text.r_gpt_enable_irq  r_gpt.o
    0x00004754   0x00004754   0x000000c0   Code   RO          755    .text.r_ioport_pins_config  r_ioport.o
    0x00004814   0x00004814   0x00000040   Code   RO          790    .text.r_sci_uart_call_callback  r_sci_uart.o
    0x00004854   0x00004854   0x0000006a   Code   RO          796    .text.sci_uart_eri_isr  r_sci_uart.o
    0x000048be   0x000048be   0x00000088   Code   RO          792    .text.sci_uart_rxi_isr  r_sci_uart.o
    0x00004946   0x00004946   0x0000004a   Code   RO          794    .text.sci_uart_tei_isr  r_sci_uart.o
    0x00004990   0x00004990   0x0000008c   Code   RO          788    .text.sci_uart_txi_isr  r_sci_uart.o
    0x00004a1c   0x00004a1c   0x0000004c   Code   RO          384    .text.send_wifi_to_esp32  esp_connect.o
    0x00004a68   0x00004a68   0x0000002a   Code   RO           62    .text.timeout_search_1ms  as608pro.o
    0x00004a92   0x00004a92   0x00000070   Code   RO          137    .text.timer_1ms_callback  fun.o
    0x00004b02   0x00004b02   0x0000005c   Code   RO          370    .text.timer_callback  esp_connect.o
    0x00004b5e   0x00004b5e   0x00000002   PAD
    0x00004b60   0x00004b60   0x000000a4   Code   RO          289    .text.tjc_send_string  tjc_usart_hmi.o
    0x00004c04   0x00004c04   0x00000102   Code   RO          378    .text.uart2_callback  esp_connect.o
    0x00004d06   0x00004d06   0x00000066   Code   RO          386    .text.uart2_init    esp_connect.o
    0x00004d6c   0x00004d6c   0x00000034   Code   RO          382    .text.uart2_send_string  esp_connect.o
    0x00004da0   0x00004da0   0x00000024   Code   RO          380    .text.uart2_send_value  esp_connect.o
    0x00004dc4   0x00004dc4   0x0000007a   Code   RO           60    .text.uart3_callback  as608pro.o
    0x00004e3e   0x00004e3e   0x0000007c   Code   RO          299    .text.uart5_callback  tjc_usart_hmi.o
    0x00004eba   0x00004eba   0x00000038   Code   RO          139    .text.uart7_callback  fun.o
    0x00004ef2   0x00004ef2   0x00000002   PAD
    0x00004ef4   0x00004ef4   0x000000b6   Code   RO          343    .text.uart8_callback  k230_connect.o
    0x00004faa   0x00004faa   0x00000032   Code   RO          349    .text.uart8_init    k230_connect.o
    0x00004fdc   0x00004fdc   0x00000048   Code   RO          345    .text.uart8_send_value  k230_connect.o
    0x00005024   0x00005024   0x000000a0   Code   RO          417    .text.uart9_callback  asr_pro.o
    0x000050c4   0x000050c4   0x0000000e   Code   RO          421    .text.uart9_init    asr_pro.o
    0x000050d2   0x000050d2   0x00000002   PAD
    0x000050d4   0x000050d4   0x00000048   Code   RO          419    .text.uart9_send_value  asr_pro.o
    0x0000511c   0x0000511c   0x0000005a   Code   RO          374    .text.update_clock_display  esp_connect.o
    0x00005176   0x00005176   0x00000002   PAD
    0x00005178   0x00005178   0x00000020   Code   RO         1126    i.__0printf$8       mc_w.l(printf8.o)
    0x00005198   0x00005198   0x00000034   Code   RO         1127    i.__0snprintf$8     mc_w.l(printf8.o)
    0x000051cc   0x000051cc   0x00000028   Code   RO         1128    i.__0sprintf$8      mc_w.l(printf8.o)
    0x000051f4   0x000051f4   0x00000008   Code   RO         1200    i.__aeabi_errno_addr  mc_w.l(errno.o)
    0x000051fc   0x000051fc   0x00000410   Code   RO         1133    i._printf_core      mc_w.l(printf8.o)
    0x0000560c   0x0000560c   0x00000024   Code   RO         1134    i._printf_post_padding  mc_w.l(printf8.o)
    0x00005630   0x00005630   0x0000002e   Code   RO         1135    i._printf_pre_padding  mc_w.l(printf8.o)
    0x0000565e   0x0000565e   0x00000016   Code   RO         1136    i._snputc           mc_w.l(printf8.o)
    0x00005674   0x00005674   0x0000000a   Code   RO         1137    i._sputc            mc_w.l(printf8.o)
    0x0000567e   0x0000567e   0x00000002   PAD
    0x00005680   0x00005680   0x00000024   Code   RO          897    i.puts              mc_w.l(puts.o)
    0x000056a4   0x000056a4   0x00000081   Data   RO         1235    .constdata          mc_w.l(ctype_o.o)
    0x00005725   0x00005725   0x00000003   PAD
    0x00005728   0x00005728   0x00000004   Data   RO         1236    .constdata          mc_w.l(ctype_o.o)
    0x0000572c   0x0000572c   0x00000008   Data   RO          583    .rodata.cst8        bsp_register_protection.o
    0x00005734   0x00005734   0x0000000c   Data   RO          883    .rodata.g_bsp_pin_cfg  pin_data.o
    0x00005740   0x00005740   0x000000d8   Data   RO          882    .rodata.g_bsp_pin_cfg_data  pin_data.o
    0x00005818   0x00005818   0x0000000c   Data   RO          866    .rodata.g_i2c1      hal_data.o
    0x00005824   0x00005824   0x00000038   Data   RO          864    .rodata.g_i2c1_cfg  hal_data.o
    0x0000585c   0x0000585c   0x00000010   Data   RO          863    .rodata.g_i2c1_extend  hal_data.o
    0x0000586c   0x0000586c   0x00000020   Data   RO          720    .rodata.g_i2c_master_on_iic  r_iic_master.o
    0x0000588c   0x0000588c   0x00000180   Data   RO          890    .rodata.g_interrupt_event_link_select  vector_data.o
    0x00005a0c   0x00005a0c   0x0000000c   Data   RO          812    .rodata.g_ioport    common_data.o
    0x00005a18   0x00005a18   0x00000034   Data   RO          759    .rodata.g_ioport_on_ioport  r_ioport.o
    0x00005a4c   0x00005a4c   0x00000024   Data   RO          826    .rodata.g_timer1_cfg  hal_data.o
    0x00005a70   0x00005a70   0x00000054   Data   RO          825    .rodata.g_timer1_extend  hal_data.o
    0x00005ac4   0x00005ac4   0x00000024   Data   RO          822    .rodata.g_timer2_cfg  hal_data.o
    0x00005ae8   0x00005ae8   0x00000054   Data   RO          821    .rodata.g_timer2_extend  hal_data.o
    0x00005b3c   0x00005b3c   0x0000000c   Data   RO          852    .rodata.g_timer_1ms  hal_data.o
    0x00005b48   0x00005b48   0x00000024   Data   RO          850    .rodata.g_timer_1ms_cfg  hal_data.o
    0x00005b6c   0x00005b6c   0x00000054   Data   RO          849    .rodata.g_timer_1ms_extend  hal_data.o
    0x00005bc0   0x00005bc0   0x00000034   Data   RO          681    .rodata.g_timer_on_gpt  r_gpt.o
    0x00005bf4   0x00005bf4   0x0000000c   Data   RO          843    .rodata.g_uart2     hal_data.o
    0x00005c00   0x00005c00   0x00000044   Data   RO          841    .rodata.g_uart2_cfg  hal_data.o
    0x00005c44   0x00005c44   0x0000002c   Data   RO          840    .rodata.g_uart2_cfg_extend  hal_data.o
    0x00005c70   0x00005c70   0x0000000c   Data   RO          857    .rodata.g_uart3     hal_data.o
    0x00005c7c   0x00005c7c   0x00000044   Data   RO          855    .rodata.g_uart3_cfg  hal_data.o
    0x00005cc0   0x00005cc0   0x0000002c   Data   RO          854    .rodata.g_uart3_cfg_extend  hal_data.o
    0x00005cec   0x00005cec   0x0000000c   Data   RO          862    .rodata.g_uart5     hal_data.o
    0x00005cf8   0x00005cf8   0x00000044   Data   RO          860    .rodata.g_uart5_cfg  hal_data.o
    0x00005d3c   0x00005d3c   0x0000002c   Data   RO          859    .rodata.g_uart5_cfg_extend  hal_data.o
    0x00005d68   0x00005d68   0x0000000c   Data   RO          848    .rodata.g_uart7     hal_data.o
    0x00005d74   0x00005d74   0x00000044   Data   RO          846    .rodata.g_uart7_cfg  hal_data.o
    0x00005db8   0x00005db8   0x0000002c   Data   RO          845    .rodata.g_uart7_cfg_extend  hal_data.o
    0x00005de4   0x00005de4   0x0000000c   Data   RO          838    .rodata.g_uart8     hal_data.o
    0x00005df0   0x00005df0   0x00000044   Data   RO          836    .rodata.g_uart8_cfg  hal_data.o
    0x00005e34   0x00005e34   0x0000002c   Data   RO          835    .rodata.g_uart8_cfg_extend  hal_data.o
    0x00005e60   0x00005e60   0x0000000c   Data   RO          833    .rodata.g_uart9     hal_data.o
    0x00005e6c   0x00005e6c   0x00000044   Data   RO          831    .rodata.g_uart9_cfg  hal_data.o
    0x00005eb0   0x00005eb0   0x0000002c   Data   RO          830    .rodata.g_uart9_cfg_extend  hal_data.o
    0x00005edc   0x00005edc   0x00000024   Data   RO          798    .rodata.g_uart_on_sci  r_sci_uart.o
    0x00005f00   0x00005f00   0x00000004   Data   RO          619    .rodata.gp_start_of_nonsecure_callable_flash  bsp_security.o
    0x00005f04   0x00005f04   0x00000004   Data   RO          622    .rodata.gp_start_of_nonsecure_callable_ram  bsp_security.o
    0x00005f08   0x00005f08   0x00000004   Data   RO          624    .rodata.gp_start_of_nonsecure_data_flash  bsp_security.o
    0x00005f0c   0x00005f0c   0x00000004   Data   RO          618    .rodata.gp_start_of_nonsecure_flash  bsp_security.o
    0x00005f10   0x00005f10   0x00000004   Data   RO          621    .rodata.gp_start_of_nonsecure_ram  bsp_security.o
    0x00005f14   0x00005f14   0x00000004   Data   RO          625    .rodata.gp_start_of_secure_data_flash  bsp_security.o
    0x00005f18   0x00005f18   0x00000004   Data   RO          620    .rodata.gp_start_of_secure_flash  bsp_security.o
    0x00005f1c   0x00005f1c   0x00000004   Data   RO          623    .rodata.gp_start_of_secure_ram  bsp_security.o
    0x00005f20   0x00005f20   0x00000006   Data   RO          234    .rodata.pn532_ack   pn532.o
    0x00005f26   0x00005f26   0x000000d9   Data   RO          123    .rodata.str1.1      as608pro.o
    0x00005fff   0x00005fff   0x0000001a   Data   RO          327    .rodata.str1.1      tjc_usart_hmi.o
    0x00006019   0x00006019   0x00000018   Data   RO          396    .rodata.str1.1      esp_connect.o
    0x00006031   0x00006031   0x00000003   PAD
    0x00006034   0x00006034   0x00000004   Data   RO          523    .version            bsp_common.o
    0x00006038   0x00006038   0x00000006   Data   RO          524    .version            bsp_common.o
    0x0000603e   0x0000603e   0x00000044   Data   RO          525    .version            bsp_common.o


    Execution Region __tz_RAM_S (Exec base: 0x20000000, Load base: 0x00006084, Size: 0x00000000, Max: 0x00000000, ABSOLUTE)

    Exec Addr    Load Addr    Size         Type   Attr      Idx    E Section Name        Object

    0x20000000        -       0x00000000   Zero   RW            2    __tz_RAM_S.bss      anon$$obj.o


    Execution Region DTC_VECTOR_TABLE (Exec base: 0x20000000, Load base: 0x00006084, Size: 0x00000000, Max: 0x00080000, ABSOLUTE, UNINIT)

    **** No section assigned to this execution region ****


    Execution Region DATA (Exec base: 0x20000000, Load base: 0x00006084, Size: 0x000000b4, Max: 0xffffffff, ABSOLUTE)

    Exec Addr    Load Addr    Size         Type   Attr      Idx    E Section Name        Object

    0x20000000   0x00006084   0x00000004   Data   RW         1186    .data               mc_w.l(stdout.o)
    0x20000004   0x00006088   0x00000004   Data   RW         1203    .data               mc_w.l(errno.o)
    0x20000008   0x0000608c   0x00000004   Data   RW          114    .data.AS608Addr     as608pro.o
    0x2000000c   0x00006090   0x00000080   Data   RW          237    .data.authorized_cards  pn532.o
    0x2000008c   0x00006110   0x00000002   Data   RW          425    .data.g_received_value  asr_pro.o
    0x2000008e   0x00006112   0x00000004   Data   RW          839    .data.g_uart2_baud_setting  hal_data.o
    0x20000092   0x00006116   0x00000004   Data   RW          853    .data.g_uart3_baud_setting  hal_data.o
    0x20000096   0x0000611a   0x00000004   Data   RW          858    .data.g_uart5_baud_setting  hal_data.o
    0x2000009a   0x0000611e   0x00000004   Data   RW          844    .data.g_uart7_baud_setting  hal_data.o
    0x2000009e   0x00006122   0x00000004   Data   RW          834    .data.g_uart8_baud_setting  hal_data.o
    0x200000a2   0x00006126   0x00000004   Data   RW          829    .data.g_uart9_baud_setting  hal_data.o
    0x200000a6   0x0000612a   0x00000002   PAD
    0x200000a8   0x0000612c   0x00000004   Data   RW          166    .data.key_scan.stable_level  fun.o
    0x200000ac   0x00006130   0x00000004   Data   RW          162    .data.level_2       fun.o
    0x200000b0   0x00006134   0x00000001   Data   RW          238    .data.num_cards     pn532.o
    0x200000b1   0x00006135   0x00000001   Data   RW          398    .data.update_clock_display.last_second  esp_connect.o


    Execution Region BSS (Exec base: 0x200000b4, Load base: 0x00006138, Size: 0x00000ae4, Max: 0xffffffff, ABSOLUTE)

    Exec Addr    Load Addr    Size         Type   Attr      Idx    E Section Name        Object

    0x200000b4        -       0x0000000c   Zero   RW          124    .bss.AS608Para      as608pro.o
    0x200000c0        -       0x00000001   Zero   RW          125    .bss.AS608_PressFR.press_state  as608pro.o
    0x200000c1        -       0x00000190   Zero   RW          120    .bss.AS608_USART_RX_BUF  as608pro.o
    0x20000251   0x00006138   0x00000001   PAD
    0x20000252        -       0x00000002   Zero   RW          115    .bss.AS608_USART_RX_STA  as608pro.o
    0x20000254        -       0x00000040   Zero   RW          235    .bss.PN532_recv_buf  pn532.o
    0x20000294        -       0x00000040   Zero   RW          243    .bss.PN532_send_buf  pn532.o
    0x200002d4        -       0x00000004   Zero   RW          477    .bss.SystemCoreClock  system.o
    0x200002d8        -       0x00000001   Zero   RW          314    .bss.USART_Rbuffer_Num  tjc_usart_hmi.o
    0x200002d9   0x00006138   0x00000001   PAD
    0x200002da        -       0x00000002   Zero   RW          122    .bss.ValidN         as608pro.o
    0x200002dc        -       0x00000004   Zero   RW          319    .bss.a              tjc_usart_hmi.o
    0x200002e0        -       0x00000004   Zero   RW          158    .bss.count          fun.o
    0x200002e4        -       0x00000040   Zero   RW          550    .bss.g_bsp_group_irq_sources  bsp_group_irq.o
    0x20000324        -       0x00000001   Zero   RW          390    .bss.g_clock_running  esp_connect.o
    0x20000325        -       0x00000003   Zero   RW          392    .bss.g_current_time  esp_connect.o
    0x20000328        -       0x00000001   Zero   RW          402    .bss.g_data_valid   esp_connect.o
    0x20000329   0x00006138   0x00000003   PAD
    0x2000032c        -       0x00000040   Zero   RW          865    .bss.g_i2c1_ctrl    hal_data.o
    0x2000036c        -       0x00000004   Zero   RW          266    .bss.g_i2c_last_error  pn532_hal.o
    0x20000370        -       0x00000001   Zero   RW          267    .bss.g_i2c_rx_complete  pn532_hal.o
    0x20000371        -       0x00000001   Zero   RW          265    .bss.g_i2c_tx_complete  pn532_hal.o
    0x20000372   0x00006138   0x00000002   PAD
    0x20000374        -       0x00000008   Zero   RW          811    .bss.g_ioport_ctrl  common_data.o
    0x2000037c        -       0x00000008   Zero   RW          582    .bss.g_protect_counters  bsp_register_protection.o
    0x20000384        -       0x00000004   Zero   RW          560    .bss.g_protect_pfswe_counter  bsp_io.o
    0x20000388        -       0x00000010   Zero   RW          394    .bss.g_received_time  esp_connect.o
    0x20000398        -       0x00000002   Zero   RW          353    .bss.g_received_value  k230_connect.o
    0x2000039a        -       0x00000002   Zero   RW          397    .bss.g_received_value  esp_connect.o
    0x2000039c        -       0x00000018   Zero   RW          161    .bss.g_rx_buf       fun.o
    0x200003b4        -       0x00000004   Zero   RW          268    .bss.g_system_tick_ms  pn532_hal.o
    0x200003b8        -       0x00000001   Zero   RW          393    .bss.g_time_valid   esp_connect.o
    0x200003b9   0x00006138   0x00000003   PAD
    0x200003bc        -       0x00000020   Zero   RW          827    .bss.g_timer1_ctrl  hal_data.o
    0x200003dc        -       0x00000020   Zero   RW          823    .bss.g_timer2_ctrl  hal_data.o
    0x200003fc        -       0x00000020   Zero   RW          851    .bss.g_timer_1ms_ctrl  hal_data.o
    0x2000041c        -       0x00000004   Zero   RW          391    .bss.g_timer_count  esp_connect.o
    0x20000420        -       0x00000030   Zero   RW          842    .bss.g_uart2_ctrl   hal_data.o
    0x20000450        -       0x00000004   Zero   RW          388    .bss.g_uart2_tx_complete  esp_connect.o
    0x20000454        -       0x00000030   Zero   RW          856    .bss.g_uart3_ctrl   hal_data.o
    0x20000484        -       0x00000001   Zero   RW          121    .bss.g_uart3_rx_complete  as608pro.o
    0x20000485        -       0x00000001   Zero   RW          118    .bss.g_uart3_tx_complete  as608pro.o
    0x20000486   0x00006138   0x00000002   PAD
    0x20000488        -       0x00000030   Zero   RW          861    .bss.g_uart5_ctrl   hal_data.o
    0x200004b8        -       0x00000004   Zero   RW          318    .bss.g_uart5_rx_complete  tjc_usart_hmi.o
    0x200004bc        -       0x00000004   Zero   RW          317    .bss.g_uart5_tx_complete  tjc_usart_hmi.o
    0x200004c0        -       0x00000030   Zero   RW          847    .bss.g_uart7_ctrl   hal_data.o
    0x200004f0        -       0x00000004   Zero   RW          160    .bss.g_uart7_rx_complete  fun.o
    0x200004f4        -       0x00000004   Zero   RW          159    .bss.g_uart7_tx_complete  fun.o
    0x200004f8        -       0x00000030   Zero   RW          837    .bss.g_uart8_ctrl   hal_data.o
    0x20000528        -       0x00000004   Zero   RW          351    .bss.g_uart8_tx_complete  k230_connect.o
    0x2000052c        -       0x00000030   Zero   RW          832    .bss.g_uart9_ctrl   hal_data.o
    0x2000055c        -       0x00000004   Zero   RW          423    .bss.g_uart9_tx_complete  asr_pro.o
    0x20000560        -       0x00000180   Zero   RW          569    .bss.gp_renesas_isr_context  bsp_irq.o
    0x200006e0        -       0x00000002   Zero   RW          164    .bss.key_press_time  fun.o
    0x200006e2        -       0x00000001   Zero   RW          165    .bss.key_scan.debounce_cnt  fun.o
    0x200006e3   0x00006138   0x00000001   PAD
    0x200006e4        -       0x00000004   Zero   RW          163    .bss.key_state      fun.o
    0x200006e8        -       0x00000002   Zero   RW          354    .bss.last_g_received_value  k230_connect.o
    0x200006ea   0x00006138   0x00000002   PAD
    0x200006ec        -       0x00000004   Zero   RW          116    .bss.level          as608pro.o
    0x200006f0        -       0x00000001   Zero   RW          313    .bss.lock_flag      tjc_usart_hmi.o
    0x200006f1        -       0x00000001   Zero   RW          451    .bss.motor_flag     motor.o
    0x200006f2        -       0x00000001   Zero   RW          240    .bss.result         pn532.o
    0x200006f3   0x00006138   0x00000001   PAD
    0x200006f4        -       0x000001fa   Zero   RW          316    .bss.ringBuffer     tjc_usart_hmi.o
    0x200008ee   0x00006138   0x00000002   PAD
    0x200008f0        -       0x00000004   Zero   RW          119    .bss.rx_timeout_counter  as608pro.o
    0x200008f4        -       0x00000064   Zero   RW          326    .bss.str            tjc_usart_hmi.o
    0x20000958        -       0x00000064   Zero   RW          117    .bss.str1           as608pro.o
    0x200009bc        -       0x00000064   Zero   RW          242    .bss.str2           pn532.o
    0x20000a20        -       0x00000064   Zero   RW          355    .bss.str3           k230_connect.o
    0x20000a84        -       0x0000001e   Zero   RW          395    .bss.str5           esp_connect.o
    0x20000aa2   0x00006138   0x00000002   PAD
    0x20000aa4        -       0x0000000c   Zero   RW          449    .bss.timer1_info    motor.o
    0x20000ab0        -       0x0000000c   Zero   RW          450    .bss.timer2_info    motor.o
    0x20000abc        -       0x00000001   Zero   RW          401    .bss.uart2_frame_ready  esp_connect.o
    0x20000abd   0x00006138   0x00000003   PAD
    0x20000ac0        -       0x00000040   Zero   RW          400    .bss.uart2_rx_buffer  esp_connect.o
    0x20000b00        -       0x00000001   Zero   RW          399    .bss.uart2_rx_index  esp_connect.o
    0x20000b01   0x00006138   0x00000003   PAD
    0x20000b04        -       0x0000000a   Zero   RW          357    .bss.uart8_rx_buffer  k230_connect.o
    0x20000b0e        -       0x00000001   Zero   RW          356    .bss.uart8_rx_index  k230_connect.o
    0x20000b0f        -       0x0000000a   Zero   RW          427    .bss.uart9_rx_buffer  asr_pro.o
    0x20000b19        -       0x00000001   Zero   RW          426    .bss.uart9_rx_index  asr_pro.o
    0x20000b1a   0x00006138   0x00000002   PAD
    0x20000b1c        -       0x0000000a   Zero   RW          241    .bss.uid            pn532.o
    0x20000b26        -       0x00000001   Zero   RW          236    .bss.uid_len        pn532.o
    0x20000b27        -       0x00000004   Zero   RW          239    .bss.version        pn532.o
    0x20000b2b        -       0x00000001   Zero   RW          320    .bss.wifi_data_type  tjc_usart_hmi.o
    0x20000b2c        -       0x00000001   Zero   RW          321    .bss.wifi_frame_received  tjc_usart_hmi.o
    0x20000b2d   0x00006138   0x00000003   PAD
    0x20000b30        -       0x00000040   Zero   RW          325    .bss.wifi_pwd       tjc_usart_hmi.o
    0x20000b70        -       0x00000001   Zero   RW          324    .bss.wifi_pwd_len   tjc_usart_hmi.o
    0x20000b71   0x00006138   0x00000003   PAD
    0x20000b74        -       0x00000020   Zero   RW          323    .bss.wifi_ssid      tjc_usart_hmi.o
    0x20000b94        -       0x00000001   Zero   RW          322    .bss.wifi_ssid_len  tjc_usart_hmi.o


    Execution Region NOINIT (Exec base: 0x20000b98, Load base: 0x00006138, Size: 0x0000001c, Max: 0xffffffff, ABSOLUTE, UNINIT)

    Exec Addr    Load Addr    Size         Type   Attr      Idx    E Section Name        Object

    0x20000b98        -       0x0000001c   Zero   RW          508    .bss.noinit         bsp_clocks.o


    Execution Region ARM_LIB_HEAP (Exec base: 0x20000bb8, Load base: 0x00006138, Size: 0x00000000, Max: 0xffffffff, ABSOLUTE, UNINIT)

    **** No section assigned to this execution region ****


    Execution Region ARM_LIB_STACK (Exec base: 0x20000bb8, Load base: 0x00006138, Size: 0x00000000, Max: 0x00000000, ABSOLUTE, UNINIT)

    Exec Addr    Load Addr    Size         Type   Attr      Idx    E Section Name        Object

    0x20000bb8        -       0x00000000   Zero   RW            3    ARM_LIB_STACK.bss   anon$$obj.o


    Execution Region STACK (Exec base: 0x20000bb8, Load base: 0x00006138, Size: 0x00000400, Max: 0xffffffff, ABSOLUTE, UNINIT)

    Exec Addr    Load Addr    Size         Type   Attr      Idx    E Section Name        Object

    0x20000bb8        -       0x00000400   Zero   RW          464    .bss.stack          startup.o


    Execution Region RAM_END (Exec base: 0x20000fb8, Load base: 0x00006138, Size: 0x00000004, Max: 0x00000004, ABSOLUTE)

    Exec Addr    Load Addr    Size         Type   Attr      Idx    E Section Name        Object

    0x20000fb8        -       0x00000004   Zero   RW            4    RAM_END.bss         anon$$obj.o


    Execution Region __tz_RAM_C (Exec base: 0x20080000, Load base: 0x00006138, Size: 0x00000000, Max: 0x00000000, ABSOLUTE)

    Exec Addr    Load Addr    Size         Type   Attr      Idx    E Section Name        Object

    0x20080000        -       0x00000000   Zero   RW            5    __tz_RAM_C.bss      anon$$obj.o


    Execution Region __tz_RAM_N (Exec base: 0x20080000, Load base: 0x00006138, Size: 0x00000000, Max: 0x00000000, ABSOLUTE)

    Exec Addr    Load Addr    Size         Type   Attr      Idx    E Section Name        Object

    0x20080000        -       0x00000000   Zero   RW            6    __tz_RAM_N.bss      anon$$obj.o


    Execution Region RAM_LIMIT (Exec base: 0x20080000, Load base: 0x00006138, Size: 0x00000004, Max: 0x00000004, ABSOLUTE)

    Exec Addr    Load Addr    Size         Type   Attr      Idx    E Section Name        Object

    0x20080000        -       0x00000004   Zero   RW            7    RAM_LIMIT.bss       anon$$obj.o


    Execution Region OSPI_DEVICE_0_NO_LOAD (Exec base: 0x68000000, Load base: 0x00006138, Size: 0x00000000, Max: 0xffffffff, ABSOLUTE, UNINIT)

    **** No section assigned to this execution region ****


    Execution Region OSPI_DEVICE_1_NO_LOAD (Exec base: 0x70000000, Load base: 0x00006138, Size: 0x00000000, Max: 0xffffffff, ABSOLUTE, UNINIT)

    **** No section assigned to this execution region ****



  Load Region LOAD_REGION_NSC_FLASH (Base: 0x00007400, Size: 0x00000000, Max: 0xffffffff, ABSOLUTE)

    Execution Region __tz_FLASH_C (Exec base: 0x00007400, Load base: 0x00007400, Size: 0x00000000, Max: 0x00000000, ABSOLUTE)

    Exec Addr    Load Addr    Size         Type   Attr      Idx    E Section Name        Object

    0x00007400        -       0x00000000   Zero   RW            8    __tz_FLASH_C.bss    anon$$obj.o


    Execution Region EXEC_NSCR (Exec base: 0x00007400, Load base: 0x00007400, Size: 0x00000000, Max: 0xffffffff, ABSOLUTE, FIXED)

    **** No section assigned to this execution region ****


    Execution Region __tz_FLASH_N (Exec base: 0x00008000, Load base: 0x00007400, Size: 0x00000000, Max: 0x00000000, ABSOLUTE)

    Exec Addr    Load Addr    Size         Type   Attr      Idx    E Section Name        Object

    0x00008000        -       0x00000000   Zero   RW            9    __tz_FLASH_N.bss    anon$$obj.o



  Load Region LOAD_REGION_ID_CODE (Base: 0x00000000, Size: 0x00000000, Max: 0x00000004, ABSOLUTE)

    Execution Region __tz_ID_CODE_S (Exec base: 0x00000000, Load base: 0x00000000, Size: 0x00000000, Max: 0x00000000, ABSOLUTE)

    Exec Addr    Load Addr    Size         Type   Attr      Idx    E Section Name        Object

    0x00000000        -       0x00000000   Zero   RW           10    __tz_ID_CODE_S.bss  anon$$obj.o


    Execution Region __tz_ID_CODE_N (Exec base: 0x00000000, Load base: 0x00000000, Size: 0x00000000, Max: 0x00000000, ABSOLUTE)

    Exec Addr    Load Addr    Size         Type   Attr      Idx    E Section Name        Object

    0x00000000        -       0x00000000   Zero   RW           11    __tz_ID_CODE_N.bss  anon$$obj.o



  Load Region LOAD_REGION_OPTION_SETTING (Base: 0x0100a100, Size: 0x00000080, Max: 0x00000100, ABSOLUTE)

    Execution Region __tz_OPTION_SETTING_S (Exec base: 0x0100a100, Load base: 0x0100a100, Size: 0x00000000, Max: 0x00000000, ABSOLUTE)

    Exec Addr    Load Addr    Size         Type   Attr      Idx    E Section Name        Object

    0x0100a100        -       0x00000000   Zero   RW           12    __tz_OPTION_SETTING_S.bss  anon$$obj.o


    Execution Region OFS0 (Exec base: 0x0100a100, Load base: 0x0100a100, Size: 0x00000004, Max: 0xffffffff, ABSOLUTE, FIXED)

    Exec Addr    Load Addr    Size         Type   Attr      Idx    E Section Name        Object

    0x0100a100   0x0100a100   0x00000004   Data   RO          592    .option_setting_ofs0  bsp_rom_registers.o


    Execution Region UNUSED_0 (Exec base: 0x0100a104, Load base: 0x0100a104, Size: 0x00000000, Max: 0x00000000, ABSOLUTE, FIXED)

    Exec Addr    Load Addr    Size         Type   Attr      Idx    E Section Name        Object

    0x0100a104        -       0x00000000   Zero   RW           13    UNUSED_0.bss        anon$$obj.o


    Execution Region OFS2 (Exec base: 0x0100a104, Load base: 0x0100a104, Size: 0x00000000, Max: 0xffffffff, ABSOLUTE, FIXED)

    **** No section assigned to this execution region ****


    Execution Region UNUSED_1 (Exec base: 0x0100a104, Load base: 0x0100a104, Size: 0x0000000c, Max: 0x0000000c, ABSOLUTE, FIXED)

    Exec Addr    Load Addr    Size         Type   Attr      Idx    E Section Name        Object

    0x0100a104        -       0x0000000c   Zero   RW           14    UNUSED_1.bss        anon$$obj.o


    Execution Region DUALSEL (Exec base: 0x0100a110, Load base: 0x0100a110, Size: 0x00000004, Max: 0xffffffff, ABSOLUTE, FIXED)

    Exec Addr    Load Addr    Size         Type   Attr      Idx    E Section Name        Object

    0x0100a110   0x0100a110   0x00000004   Data   RO          593    .option_setting_dualsel  bsp_rom_registers.o


    Execution Region UNUSED_2 (Exec base: 0x0100a114, Load base: 0x0100a114, Size: 0x00000020, Max: 0x00000020, ABSOLUTE, FIXED)

    Exec Addr    Load Addr    Size         Type   Attr      Idx    E Section Name        Object

    0x0100a114        -       0x00000020   Zero   RW           15    UNUSED_2.bss        anon$$obj.o


    Execution Region SAS (Exec base: 0x0100a134, Load base: 0x0100a134, Size: 0x00000004, Max: 0xffffffff, ABSOLUTE, FIXED)

    Exec Addr    Load Addr    Size         Type   Attr      Idx    E Section Name        Object

    0x0100a134   0x0100a134   0x00000004   Data   RO          594    .option_setting_sas  bsp_rom_registers.o


    Execution Region UNUSED_3 (Exec base: 0x0100a138, Load base: 0x0100a138, Size: 0x00000048, Max: 0x00000048, ABSOLUTE, FIXED)

    Exec Addr    Load Addr    Size         Type   Attr      Idx    E Section Name        Object

    0x0100a138        -       0x00000048   Zero   RW           16    UNUSED_3.bss        anon$$obj.o


    Execution Region __tz_OPTION_SETTING_N (Exec base: 0x0100a180, Load base: 0x0100a180, Size: 0x00000000, Max: 0x00000000, ABSOLUTE)

    Exec Addr    Load Addr    Size         Type   Attr      Idx    E Section Name        Object

    0x0100a180        -       0x00000000   Zero   RW           17    __tz_OPTION_SETTING_N.bss  anon$$obj.o



  Load Region LOAD_REGION_OPTION_SETTING_S (Base: 0x0100a200, Size: 0x00000100, Max: 0x00000100, ABSOLUTE)

    Execution Region __tz_OPTION_SETTING_S_S (Exec base: 0x0100a200, Load base: 0x0100a200, Size: 0x00000000, Max: 0x00000000, ABSOLUTE)

    Exec Addr    Load Addr    Size         Type   Attr      Idx    E Section Name        Object

    0x0100a200        -       0x00000000   Zero   RW           18    __tz_OPTION_SETTING_S_S.bss  anon$$obj.o


    Execution Region OFS1_SEC (Exec base: 0x0100a200, Load base: 0x0100a200, Size: 0x00000004, Max: 0xffffffff, ABSOLUTE, FIXED)

    Exec Addr    Load Addr    Size         Type   Attr      Idx    E Section Name        Object

    0x0100a200   0x0100a200   0x00000004   Data   RO          595    .option_setting_ofs1_sec  bsp_rom_registers.o


    Execution Region UNUSED_7 (Exec base: 0x0100a204, Load base: 0x0100a204, Size: 0x00000000, Max: 0x00000000, ABSOLUTE, FIXED)

    Exec Addr    Load Addr    Size         Type   Attr      Idx    E Section Name        Object

    0x0100a204        -       0x00000000   Zero   RW           19    UNUSED_7.bss        anon$$obj.o


    Execution Region OFS3_SEC (Exec base: 0x0100a204, Load base: 0x0100a204, Size: 0x00000000, Max: 0xffffffff, ABSOLUTE, FIXED)

    **** No section assigned to this execution region ****


    Execution Region UNUSED_8 (Exec base: 0x0100a204, Load base: 0x0100a204, Size: 0x0000000c, Max: 0x0000000c, ABSOLUTE, FIXED)

    Exec Addr    Load Addr    Size         Type   Attr      Idx    E Section Name        Object

    0x0100a204        -       0x0000000c   Zero   RW           20    UNUSED_8.bss        anon$$obj.o


    Execution Region BANKSEL_SEC (Exec base: 0x0100a210, Load base: 0x0100a210, Size: 0x00000004, Max: 0xffffffff, ABSOLUTE, FIXED)

    Exec Addr    Load Addr    Size         Type   Attr      Idx    E Section Name        Object

    0x0100a210   0x0100a210   0x00000004   Data   RO          596    .option_setting_banksel_sec  bsp_rom_registers.o


    Execution Region UNUSED_9 (Exec base: 0x0100a214, Load base: 0x0100a214, Size: 0x0000002c, Max: 0x0000002c, ABSOLUTE, FIXED)

    Exec Addr    Load Addr    Size         Type   Attr      Idx    E Section Name        Object

    0x0100a214        -       0x0000002c   Zero   RW           21    UNUSED_9.bss        anon$$obj.o


    Execution Region BPS_SEC (Exec base: 0x0100a240, Load base: 0x0100a240, Size: 0x00000010, Max: 0xffffffff, ABSOLUTE, FIXED)

    Exec Addr    Load Addr    Size         Type   Attr      Idx    E Section Name        Object

    0x0100a240   0x0100a240   0x00000004   Data   RO          597    .option_setting_bps_sec0  bsp_rom_registers.o
    0x0100a244   0x0100a244   0x00000004   Data   RO          598    .option_setting_bps_sec1  bsp_rom_registers.o
    0x0100a248   0x0100a248   0x00000004   Data   RO          599    .option_setting_bps_sec2  bsp_rom_registers.o
    0x0100a24c   0x0100a24c   0x00000004   Data   RO          600    .option_setting_bps_sec3  bsp_rom_registers.o


    Execution Region UNUSED_10 (Exec base: 0x0100a250, Load base: 0x0100a250, Size: 0x00000010, Max: 0x00000010, ABSOLUTE, FIXED)

    Exec Addr    Load Addr    Size         Type   Attr      Idx    E Section Name        Object

    0x0100a250        -       0x00000010   Zero   RW           22    UNUSED_10.bss       anon$$obj.o


    Execution Region PBPS_SEC (Exec base: 0x0100a260, Load base: 0x0100a260, Size: 0x00000010, Max: 0xffffffff, ABSOLUTE, FIXED)

    Exec Addr    Load Addr    Size         Type   Attr      Idx    E Section Name        Object

    0x0100a260   0x0100a260   0x00000004   Data   RO          601    .option_setting_pbps_sec0  bsp_rom_registers.o
    0x0100a264   0x0100a264   0x00000004   Data   RO          602    .option_setting_pbps_sec1  bsp_rom_registers.o
    0x0100a268   0x0100a268   0x00000004   Data   RO          603    .option_setting_pbps_sec2  bsp_rom_registers.o
    0x0100a26c   0x0100a26c   0x00000004   Data   RO          604    .option_setting_pbps_sec3  bsp_rom_registers.o


    Execution Region UNUSED_11 (Exec base: 0x0100a270, Load base: 0x0100a270, Size: 0x00000010, Max: 0x00000010, ABSOLUTE, FIXED)

    Exec Addr    Load Addr    Size         Type   Attr      Idx    E Section Name        Object

    0x0100a270        -       0x00000010   Zero   RW           23    UNUSED_11.bss       anon$$obj.o


    Execution Region OFS1_SEL (Exec base: 0x0100a280, Load base: 0x0100a280, Size: 0x00000004, Max: 0xffffffff, ABSOLUTE, FIXED)

    Exec Addr    Load Addr    Size         Type   Attr      Idx    E Section Name        Object

    0x0100a280   0x0100a280   0x00000004   Data   RO          605    .option_setting_ofs1_sel  bsp_rom_registers.o


    Execution Region UNUSED_12 (Exec base: 0x0100a284, Load base: 0x0100a284, Size: 0x00000000, Max: 0x00000000, ABSOLUTE, FIXED)

    Exec Addr    Load Addr    Size         Type   Attr      Idx    E Section Name        Object

    0x0100a284        -       0x00000000   Zero   RW           24    UNUSED_12.bss       anon$$obj.o


    Execution Region OFS3_SEL (Exec base: 0x0100a284, Load base: 0x0100a284, Size: 0x00000000, Max: 0xffffffff, ABSOLUTE, FIXED)

    **** No section assigned to this execution region ****


    Execution Region UNUSED_13 (Exec base: 0x0100a284, Load base: 0x0100a284, Size: 0x0000000c, Max: 0x0000000c, ABSOLUTE, FIXED)

    Exec Addr    Load Addr    Size         Type   Attr      Idx    E Section Name        Object

    0x0100a284        -       0x0000000c   Zero   RW           25    UNUSED_13.bss       anon$$obj.o


    Execution Region BANKSEL_SEL (Exec base: 0x0100a290, Load base: 0x0100a290, Size: 0x00000004, Max: 0xffffffff, ABSOLUTE, FIXED)

    Exec Addr    Load Addr    Size         Type   Attr      Idx    E Section Name        Object

    0x0100a290   0x0100a290   0x00000004   Data   RO          606    .option_setting_banksel_sel  bsp_rom_registers.o


    Execution Region UNUSED_14 (Exec base: 0x0100a294, Load base: 0x0100a294, Size: 0x0000002c, Max: 0x0000002c, ABSOLUTE, FIXED)

    Exec Addr    Load Addr    Size         Type   Attr      Idx    E Section Name        Object

    0x0100a294        -       0x0000002c   Zero   RW           26    UNUSED_14.bss       anon$$obj.o


    Execution Region BPS_SEL (Exec base: 0x0100a2c0, Load base: 0x0100a2c0, Size: 0x00000010, Max: 0xffffffff, ABSOLUTE, FIXED)

    Exec Addr    Load Addr    Size         Type   Attr      Idx    E Section Name        Object

    0x0100a2c0   0x0100a2c0   0x00000004   Data   RO          607    .option_setting_bps_sel0  bsp_rom_registers.o
    0x0100a2c4   0x0100a2c4   0x00000004   Data   RO          608    .option_setting_bps_sel1  bsp_rom_registers.o
    0x0100a2c8   0x0100a2c8   0x00000004   Data   RO          609    .option_setting_bps_sel2  bsp_rom_registers.o
    0x0100a2cc   0x0100a2cc   0x00000004   Data   RO          610    .option_setting_bps_sel3  bsp_rom_registers.o


    Execution Region UNUSED_15 (Exec base: 0x0100a2d0, Load base: 0x0100a2d0, Size: 0x00000030, Max: 0x00000030, ABSOLUTE, FIXED)

    Exec Addr    Load Addr    Size         Type   Attr      Idx    E Section Name        Object

    0x0100a2d0        -       0x00000030   Zero   RW           27    UNUSED_15.bss       anon$$obj.o


    Execution Region __tz_OPTION_SETTING_S_N (Exec base: 0x0100a300, Load base: 0x0100a300, Size: 0x00000000, Max: 0x00000000, ABSOLUTE)

    Exec Addr    Load Addr    Size         Type   Attr      Idx    E Section Name        Object

    0x0100a300        -       0x00000000   Zero   RW           28    __tz_OPTION_SETTING_S_N.bss  anon$$obj.o



  Load Region LOAD_REGION_DATA_FLASH (Base: 0x08000000, Size: 0x00000000, Max: 0x00002000, ABSOLUTE)

    Execution Region __tz_DATA_FLASH_S (Exec base: 0x08000000, Load base: 0x08000000, Size: 0x00000000, Max: 0x00000000, ABSOLUTE)

    Exec Addr    Load Addr    Size         Type   Attr      Idx    E Section Name        Object

    0x08000000        -       0x00000000   Zero   RW           29    __tz_DATA_FLASH_S.bss  anon$$obj.o


    Execution Region DATA_FLASH (Exec base: 0x08000000, Load base: 0x08000000, Size: 0x00000000, Max: 0xffffffff, ABSOLUTE)

    **** No section assigned to this execution region ****


    Execution Region __tz_DATA_FLASH_N (Exec base: 0x08000000, Load base: 0x08000000, Size: 0x00000000, Max: 0x00000000, ABSOLUTE)

    Exec Addr    Load Addr    Size         Type   Attr      Idx    E Section Name        Object

    0x08000000        -       0x00000000   Zero   RW           30    __tz_DATA_FLASH_N.bss  anon$$obj.o



  Load Region LOAD_REGION_QSPI_FLASH (Base: 0x60000000, Size: 0x00000000, Max: 0x04000000, ABSOLUTE)

    Execution Region __tz_QSPI_FLASH_S (Exec base: 0x60000000, Load base: 0x60000000, Size: 0x00000000, Max: 0x00000000, ABSOLUTE)

    Exec Addr    Load Addr    Size         Type   Attr      Idx    E Section Name        Object

    0x60000000        -       0x00000000   Zero   RW           31    __tz_QSPI_FLASH_S.bss  anon$$obj.o


    Execution Region QSPI_FLASH (Exec base: 0x60000000, Load base: 0x60000000, Size: 0x00000000, Max: 0xffffffff, ABSOLUTE, FIXED)

    **** No section assigned to this execution region ****


    Execution Region __tz_QSPI_FLASH_N (Exec base: 0x60000000, Load base: 0x60000000, Size: 0x00000000, Max: 0x00000000, ABSOLUTE)

    Exec Addr    Load Addr    Size         Type   Attr      Idx    E Section Name        Object

    0x60000000        -       0x00000000   Zero   RW           32    __tz_QSPI_FLASH_N.bss  anon$$obj.o



  Load Region LOAD_REGION_OSPI_DEVICE_0 (Base: 0x68000000, Size: 0x00000000, Max: 0x08000000, ABSOLUTE)

    Execution Region __tz_OSPI_DEVICE_0_S (Exec base: 0x68000000, Load base: 0x68000000, Size: 0x00000000, Max: 0x00000000, ABSOLUTE)

    Exec Addr    Load Addr    Size         Type   Attr      Idx    E Section Name        Object

    0x68000000        -       0x00000000   Zero   RW           33    __tz_OSPI_DEVICE_0_S.bss  anon$$obj.o


    Execution Region OSPI_DEVICE_0 (Exec base: 0x68000000, Load base: 0x68000000, Size: 0x00000000, Max: 0xffffffff, ABSOLUTE, FIXED)

    **** No section assigned to this execution region ****


    Execution Region __tz_OSPI_DEVICE_0_N (Exec base: 0x68000000, Load base: 0x68000000, Size: 0x00000000, Max: 0x00000000, ABSOLUTE)

    Exec Addr    Load Addr    Size         Type   Attr      Idx    E Section Name        Object

    0x68000000        -       0x00000000   Zero   RW           34    __tz_OSPI_DEVICE_0_N.bss  anon$$obj.o



  Load Region LOAD_REGION_OSPI_DEVICE_1 (Base: 0x70000000, Size: 0x00000000, Max: 0x10000000, ABSOLUTE)

    Execution Region __tz_OSPI_DEVICE_1_S (Exec base: 0x70000000, Load base: 0x70000000, Size: 0x00000000, Max: 0x00000000, ABSOLUTE)

    Exec Addr    Load Addr    Size         Type   Attr      Idx    E Section Name        Object

    0x70000000        -       0x00000000   Zero   RW           35    __tz_OSPI_DEVICE_1_S.bss  anon$$obj.o


    Execution Region OSPI_DEVICE_1 (Exec base: 0x70000000, Load base: 0x70000000, Size: 0x00000000, Max: 0xffffffff, ABSOLUTE, FIXED)

    **** No section assigned to this execution region ****


    Execution Region __tz_OSPI_DEVICE_1_N (Exec base: 0x70000000, Load base: 0x70000000, Size: 0x00000000, Max: 0x00000000, ABSOLUTE)

    Exec Addr    Load Addr    Size         Type   Attr      Idx    E Section Name        Object

    0x70000000        -       0x00000000   Zero   RW           36    __tz_OSPI_DEVICE_1_N.bss  anon$$obj.o



  Load Region LOAD_REGION_SDRAM (Base: 0x80010000, Size: 0x00000000, Max: 0x00000000, ABSOLUTE)

    Execution Region __tz_SDRAM_S (Exec base: 0x80010000, Load base: 0x80010000, Size: 0x00000000, Max: 0x00000000, ABSOLUTE)

    Exec Addr    Load Addr    Size         Type   Attr      Idx    E Section Name        Object

    0x80010000        -       0x00000000   Zero   RW           37    __tz_SDRAM_S.bss    anon$$obj.o


    Execution Region SDRAM (Exec base: 0x80010000, Load base: 0x80010000, Size: 0x00000000, Max: 0xffffffff, ABSOLUTE, FIXED)

    **** No section assigned to this execution region ****


    Execution Region __tz_SDRAM_N (Exec base: 0x80010000, Load base: 0x80010000, Size: 0x00000000, Max: 0x00000000, ABSOLUTE)

    Exec Addr    Load Addr    Size         Type   Attr      Idx    E Section Name        Object

    0x80010000        -       0x00000000   Zero   RW           38    __tz_SDRAM_N.bss    anon$$obj.o


==============================================================================

Image component sizes


      Code (inc. data)   RO Data    RW Data    ZI Data      Debug   Object Name

      3824        296        217          4        527      37401   as608pro.o
       246          8          0          2         15      10807   asr_pro.o
       484          0          0          0         28      35130   bsp_clocks.o
         2          0         78          0          0       9832   bsp_common.o
        80          0          0          0          0       1595   bsp_delay.o
        68          0          0          0         64      14117   bsp_group_irq.o
         0          0          0          0          4        487   bsp_io.o
       150          0          0          0        384      18672   bsp_irq.o
       160          0          8          0          8      22689   bsp_register_protection.o
         0          0         76          0          0       1150   bsp_rom_registers.o
         0          0         32          0          0        848   bsp_security.o
         0          0         12          0          8      17598   common_data.o
      1086        148         24          1        128      12886   esp_connect.o
       460         48          0          8         43      20655   fun.o
         0          0       1200         24        448      62405   hal_data.o
       178         20          0          0          0      16972   hal_entry.o
       524         52          0          0        119      11126   k230_connect.o
        10          0          0          0          0        382   main.o
       586          4          0          0         25      14801   motor.o
         0          0        228          0          0       7993   pin_data.o
      1472        138          6        129        244      11697   pn532.o
       484          0          0          0         10      11736   pn532_hal.o
      1524          0         52          0          0      78081   r_gpt.o
      2442          0         32          0          0      59736   r_iic_master.o
       950         12         52          0          0      58356   r_ioport.o
      1774          0         36          0          0      74661   r_sci_uart.o
        14          0         64          0       1024        913   startup.o
       244          0          0          0          4       6671   system.o
      1588        156         26          0        720      26609   tjc_usart_hmi.o
         0          0        768          0          0       9809   vector_data.o

    ----------------------------------------------------------------------
     18402        882       2916        172       4156     655815   Object Totals
         0          0          0          0        316          0   (incl. Generated)
        52          0          5          4         37          0   (incl. Padding)

    ----------------------------------------------------------------------

      Code (inc. data)   RO Data    RW Data    ZI Data      Debug   Library Member Name

        56          8          0          0          0         84   __0sscanf.o
        28          0          0          0          0         68   _chval.o
       812          4          0          0          0        112   _scanf.o
       332          0          0          0          0         96   _scanf_int.o
        64          0          0          0          0         84   _sgetc.o
       158          0          0          0          0         92   _strtoul.o
        26          0          0          0          0         80   atoi.o
         8          4        133          0          0         68   ctype_o.o
         8          4          0          4          0         68   errno.o
        18          0          0          0          0         76   isspace_o.o
        30          0          0          0          0         68   llshl.o
        32          0          0          0          0         68   llushr.o
        26          0          0          0          0         80   memcmp.o
        36          0          0          0          0         68   memcpya.o
        36          0          0          0          0        108   memseta.o
      1278         64          0          0          0        660   printf8.o
        36          6          0          0          0         80   puts.o
        40          8          0          0          0         84   scanf_char.o
         0          0          0          4          0          0   stdout.o
        20          0          0          0          0         68   strchr.o
        18          0          0          0          0         68   strcpy.o
        14          0          0          0          0         68   strlen.o
        36          0          0          0          0         80   strstr.o
       112          0          0          0          0         88   strtol.o
        98          0          0          0          0         92   uldiv.o

    ----------------------------------------------------------------------
      3330         98        136          8          0       2508   Library Totals
         8          0          3          0          0          0   (incl. Padding)

    ----------------------------------------------------------------------

      Code (inc. data)   RO Data    RW Data    ZI Data      Debug   Library Name

      3322         98        133          8          0       2508   mc_w.l

    ----------------------------------------------------------------------
      3330         98        136          8          0       2508   Library Totals

    ----------------------------------------------------------------------

==============================================================================


      Code (inc. data)   RO Data    RW Data    ZI Data      Debug   

     21732        980       3052        180       4156     656479   Grand Totals
     21732        980       3052        180       4156     656479   ELF Image Totals
     21732        980       3052        180          0          0   ROM Totals

==============================================================================

    Total RO  Size (Code + RO Data)                24784 (  24.20kB)
    Total RW  Size (RW Data + ZI Data)              4336 (   4.23kB)
    Total ROM Size (Code + RO Data + RW Data)      24964 (  24.38kB)

==============================================================================

